
GccApplication2.elf:     file format elf32-avr

Sections:
Idx Name          Size      VMA       LMA       File off  Algn
  0 .text         000011b8  00000000  00000000  00000094  2**1
                  CONTENTS, ALLOC, LOAD, READONLY, CODE
  1 .data         00000070  00800060  000011b8  0000124c  2**0
                  CONTENTS, ALLOC, LOAD, DATA
  2 .bss          00000001  008000d0  008000d0  000012bc  2**0
                  ALLOC
  3 .comment      0000005c  00000000  00000000  000012bc  2**0
                  CONTENTS, READONLY
  4 .note.gnu.avr.deviceinfo 0000003c  00000000  00000000  00001318  2**2
                  CONTENTS, READONLY
  5 .debug_info   000004e6  00000000  00000000  00001354  2**0
                  CONTENTS, READONLY, DEBUGGING
  6 .debug_abbrev 000004a3  00000000  00000000  0000183a  2**0
                  CONTENTS, READONLY, DEBUGGING
  7 .debug_line   00000116  00000000  00000000  00001cdd  2**0
                  CONTENTS, READONLY, DEBUGGING
  8 .debug_str    00000196  00000000  00000000  00001df3  2**0
                  CONTENTS, READONLY, DEBUGGING

Disassembly of section .text:

00000000 <__vectors>:
       0:	0c 94 2a 00 	jmp	0x54	; 0x54 <__ctors_end>
       4:	0c 94 47 00 	jmp	0x8e	; 0x8e <__bad_interrupt>
       8:	0c 94 47 00 	jmp	0x8e	; 0x8e <__bad_interrupt>
       c:	0c 94 47 00 	jmp	0x8e	; 0x8e <__bad_interrupt>
      10:	0c 94 47 00 	jmp	0x8e	; 0x8e <__bad_interrupt>
      14:	0c 94 47 00 	jmp	0x8e	; 0x8e <__bad_interrupt>
      18:	0c 94 47 00 	jmp	0x8e	; 0x8e <__bad_interrupt>
      1c:	0c 94 47 00 	jmp	0x8e	; 0x8e <__bad_interrupt>
      20:	0c 94 47 00 	jmp	0x8e	; 0x8e <__bad_interrupt>
      24:	0c 94 47 00 	jmp	0x8e	; 0x8e <__bad_interrupt>
      28:	0c 94 47 00 	jmp	0x8e	; 0x8e <__bad_interrupt>
      2c:	0c 94 47 00 	jmp	0x8e	; 0x8e <__bad_interrupt>
      30:	0c 94 47 00 	jmp	0x8e	; 0x8e <__bad_interrupt>
      34:	0c 94 47 00 	jmp	0x8e	; 0x8e <__bad_interrupt>
      38:	0c 94 47 00 	jmp	0x8e	; 0x8e <__bad_interrupt>
      3c:	0c 94 47 00 	jmp	0x8e	; 0x8e <__bad_interrupt>
      40:	0c 94 47 00 	jmp	0x8e	; 0x8e <__bad_interrupt>
      44:	0c 94 47 00 	jmp	0x8e	; 0x8e <__bad_interrupt>
      48:	0c 94 47 00 	jmp	0x8e	; 0x8e <__bad_interrupt>
      4c:	0c 94 47 00 	jmp	0x8e	; 0x8e <__bad_interrupt>
      50:	0c 94 47 00 	jmp	0x8e	; 0x8e <__bad_interrupt>

00000054 <__ctors_end>:
      54:	11 24       	eor	r1, r1
      56:	1f be       	out	0x3f, r1	; 63
      58:	cf e5       	ldi	r28, 0x5F	; 95
      5a:	d8 e0       	ldi	r29, 0x08	; 8
      5c:	de bf       	out	0x3e, r29	; 62
      5e:	cd bf       	out	0x3d, r28	; 61

00000060 <__do_copy_data>:
      60:	10 e0       	ldi	r17, 0x00	; 0
      62:	a0 e6       	ldi	r26, 0x60	; 96
      64:	b0 e0       	ldi	r27, 0x00	; 0
      66:	e8 eb       	ldi	r30, 0xB8	; 184
      68:	f1 e1       	ldi	r31, 0x11	; 17
      6a:	02 c0       	rjmp	.+4      	; 0x70 <__do_copy_data+0x10>
      6c:	05 90       	lpm	r0, Z+
      6e:	0d 92       	st	X+, r0
      70:	a0 3d       	cpi	r26, 0xD0	; 208
      72:	b1 07       	cpc	r27, r17
      74:	d9 f7       	brne	.-10     	; 0x6c <__do_copy_data+0xc>

00000076 <__do_clear_bss>:
      76:	20 e0       	ldi	r18, 0x00	; 0
      78:	a0 ed       	ldi	r26, 0xD0	; 208
      7a:	b0 e0       	ldi	r27, 0x00	; 0
      7c:	01 c0       	rjmp	.+2      	; 0x80 <.do_clear_bss_start>

0000007e <.do_clear_bss_loop>:
      7e:	1d 92       	st	X+, r1

00000080 <.do_clear_bss_start>:
      80:	a1 3d       	cpi	r26, 0xD1	; 209
      82:	b2 07       	cpc	r27, r18
      84:	e1 f7       	brne	.-8      	; 0x7e <.do_clear_bss_loop>
      86:	0e 94 9e 02 	call	0x53c	; 0x53c <main>
      8a:	0c 94 da 08 	jmp	0x11b4	; 0x11b4 <_exit>

0000008e <__bad_interrupt>:
      8e:	0c 94 00 00 	jmp	0	; 0x0 <__vectors>

00000092 <change_time_type>:
      92:	80 91 d0 00 	lds	r24, 0x00D0	; 0x8000d0 <__data_end>
      96:	81 11       	cpse	r24, r1
      98:	04 c0       	rjmp	.+8      	; 0xa2 <change_time_type+0x10>
      9a:	81 e0       	ldi	r24, 0x01	; 1
      9c:	80 93 d0 00 	sts	0x00D0, r24	; 0x8000d0 <__data_end>
      a0:	08 95       	ret
      a2:	10 92 d0 00 	sts	0x00D0, r1	; 0x8000d0 <__data_end>
      a6:	08 95       	ret

000000a8 <wait_for_init_mode_change>:
      a8:	cf 93       	push	r28
      aa:	0e 94 35 03 	call	0x66a	; 0x66a <get_char>
      ae:	c8 2f       	mov	r28, r24
      b0:	85 e0       	ldi	r24, 0x05	; 5
      b2:	90 e0       	ldi	r25, 0x00	; 0
      b4:	0e 94 c1 02 	call	0x582	; 0x582 <wait_avr>
      b8:	c3 32       	cpi	r28, 0x23	; 35
      ba:	29 f0       	breq	.+10     	; 0xc6 <wait_for_init_mode_change+0x1e>
      bc:	c1 34       	cpi	r28, 0x41	; 65
      be:	a9 f7       	brne	.-22     	; 0xaa <wait_for_init_mode_change+0x2>
      c0:	0e 94 49 00 	call	0x92	; 0x92 <change_time_type>
      c4:	f2 cf       	rjmp	.-28     	; 0xaa <wait_for_init_mode_change+0x2>
      c6:	cf 91       	pop	r28
      c8:	08 95       	ret

000000ca <get_number>:
      ca:	cf 92       	push	r12
      cc:	df 92       	push	r13
      ce:	ef 92       	push	r14
      d0:	ff 92       	push	r15
      d2:	0f 93       	push	r16
      d4:	1f 93       	push	r17
      d6:	cf 93       	push	r28
      d8:	df 93       	push	r29
      da:	e8 2e       	mov	r14, r24
      dc:	d6 2e       	mov	r13, r22
      de:	04 2f       	mov	r16, r20
      e0:	10 e0       	ldi	r17, 0x00	; 0
      e2:	c0 e0       	ldi	r28, 0x00	; 0
      e4:	d0 e0       	ldi	r29, 0x00	; 0
      e6:	8a e0       	ldi	r24, 0x0A	; 10
      e8:	c8 2e       	mov	r12, r24
      ea:	1e 15       	cp	r17, r14
      ec:	f0 f4       	brcc	.+60     	; 0x12a <get_number+0x60>
      ee:	0e 94 35 03 	call	0x66a	; 0x66a <get_char>
      f2:	f8 2e       	mov	r15, r24
      f4:	85 e0       	ldi	r24, 0x05	; 5
      f6:	90 e0       	ldi	r25, 0x00	; 0
      f8:	0e 94 c1 02 	call	0x582	; 0x582 <wait_avr>
      fc:	80 ed       	ldi	r24, 0xD0	; 208
      fe:	8f 0d       	add	r24, r15
     100:	8a 30       	cpi	r24, 0x0A	; 10
     102:	98 f7       	brcc	.-26     	; 0xea <get_number+0x20>
     104:	1f 5f       	subi	r17, 0xFF	; 255
     106:	cc 9e       	mul	r12, r28
     108:	c0 01       	movw	r24, r0
     10a:	cd 9e       	mul	r12, r29
     10c:	90 0d       	add	r25, r0
     10e:	11 24       	eor	r1, r1
     110:	ec 01       	movw	r28, r24
     112:	e0 97       	sbiw	r28, 0x30	; 48
     114:	cf 0d       	add	r28, r15
     116:	d1 1d       	adc	r29, r1
     118:	60 2f       	mov	r22, r16
     11a:	8d 2d       	mov	r24, r13
     11c:	0e 94 8f 03 	call	0x71e	; 0x71e <lcd_pos>
     120:	8f 2d       	mov	r24, r15
     122:	0e 94 a3 03 	call	0x746	; 0x746 <lcd_put>
     126:	0f 5f       	subi	r16, 0xFF	; 255
     128:	e0 cf       	rjmp	.-64     	; 0xea <get_number+0x20>
     12a:	ce 01       	movw	r24, r28
     12c:	df 91       	pop	r29
     12e:	cf 91       	pop	r28
     130:	1f 91       	pop	r17
     132:	0f 91       	pop	r16
     134:	ff 90       	pop	r15
     136:	ef 90       	pop	r14
     138:	df 90       	pop	r13
     13a:	cf 90       	pop	r12
     13c:	08 95       	ret

0000013e <validate_month_day_yr>:
     13e:	0f 93       	push	r16
     140:	1f 93       	push	r17
     142:	cf 93       	push	r28
     144:	df 93       	push	r29
     146:	2f ef       	ldi	r18, 0xFF	; 255
     148:	26 0f       	add	r18, r22
     14a:	2c 30       	cpi	r18, 0x0C	; 12
     14c:	50 f5       	brcc	.+84     	; 0x1a2 <validate_month_day_yr+0x64>
     14e:	d4 2f       	mov	r29, r20
     150:	c6 2f       	mov	r28, r22
     152:	8c 01       	movw	r16, r24
     154:	47 e0       	ldi	r20, 0x07	; 7
     156:	50 e0       	ldi	r21, 0x00	; 0
     158:	68 e7       	ldi	r22, 0x78	; 120
     15a:	70 e0       	ldi	r23, 0x00	; 0
     15c:	8c 2f       	mov	r24, r28
     15e:	0e 94 ce 04 	call	0x99c	; 0x99c <char_in_array>
     162:	88 23       	and	r24, r24
     164:	21 f0       	breq	.+8      	; 0x16e <validate_month_day_yr+0x30>
     166:	81 e0       	ldi	r24, 0x01	; 1
     168:	df 31       	cpi	r29, 0x1F	; 31
     16a:	e0 f0       	brcs	.+56     	; 0x1a4 <validate_month_day_yr+0x66>
     16c:	1a c0       	rjmp	.+52     	; 0x1a2 <validate_month_day_yr+0x64>
     16e:	47 e0       	ldi	r20, 0x07	; 7
     170:	50 e0       	ldi	r21, 0x00	; 0
     172:	68 e7       	ldi	r22, 0x78	; 120
     174:	70 e0       	ldi	r23, 0x00	; 0
     176:	8c 2f       	mov	r24, r28
     178:	0e 94 ce 04 	call	0x99c	; 0x99c <char_in_array>
     17c:	88 23       	and	r24, r24
     17e:	21 f0       	breq	.+8      	; 0x188 <validate_month_day_yr+0x4a>
     180:	81 e0       	ldi	r24, 0x01	; 1
     182:	d0 32       	cpi	r29, 0x20	; 32
     184:	78 f0       	brcs	.+30     	; 0x1a4 <validate_month_day_yr+0x66>
     186:	0d c0       	rjmp	.+26     	; 0x1a2 <validate_month_day_yr+0x64>
     188:	c2 30       	cpi	r28, 0x02	; 2
     18a:	59 f4       	brne	.+22     	; 0x1a2 <validate_month_day_yr+0x64>
     18c:	c8 01       	movw	r24, r16
     18e:	0e 94 b6 04 	call	0x96c	; 0x96c <is_leap_yr>
     192:	81 11       	cpse	r24, r1
     194:	02 c0       	rjmp	.+4      	; 0x19a <validate_month_day_yr+0x5c>
     196:	9c e1       	ldi	r25, 0x1C	; 28
     198:	01 c0       	rjmp	.+2      	; 0x19c <validate_month_day_yr+0x5e>
     19a:	9d e1       	ldi	r25, 0x1D	; 29
     19c:	81 e0       	ldi	r24, 0x01	; 1
     19e:	9d 17       	cp	r25, r29
     1a0:	08 f4       	brcc	.+2      	; 0x1a4 <validate_month_day_yr+0x66>
     1a2:	80 e0       	ldi	r24, 0x00	; 0
     1a4:	df 91       	pop	r29
     1a6:	cf 91       	pop	r28
     1a8:	1f 91       	pop	r17
     1aa:	0f 91       	pop	r16
     1ac:	08 95       	ret

000001ae <build_dt_24>:
     1ae:	af 92       	push	r10
     1b0:	bf 92       	push	r11
     1b2:	cf 92       	push	r12
     1b4:	ef 92       	push	r14
     1b6:	ff 92       	push	r15
     1b8:	0f 93       	push	r16
     1ba:	1f 93       	push	r17
     1bc:	cf 93       	push	r28
     1be:	df 93       	push	r29
     1c0:	cd b7       	in	r28, 0x3d	; 61
     1c2:	de b7       	in	r29, 0x3e	; 62
     1c4:	2e 97       	sbiw	r28, 0x0e	; 14
     1c6:	0f b6       	in	r0, 0x3f	; 63
     1c8:	f8 94       	cli
     1ca:	de bf       	out	0x3e, r29	; 62
     1cc:	0f be       	out	0x3f, r0	; 63
     1ce:	cd bf       	out	0x3d, r28	; 61
     1d0:	0e 94 8b 03 	call	0x716	; 0x716 <lcd_clr>
     1d4:	60 e0       	ldi	r22, 0x00	; 0
     1d6:	80 e0       	ldi	r24, 0x00	; 0
     1d8:	0e 94 8f 03 	call	0x71e	; 0x71e <lcd_pos>
     1dc:	80 e6       	ldi	r24, 0x60	; 96
     1de:	90 e0       	ldi	r25, 0x00	; 0
     1e0:	0e 94 a6 03 	call	0x74c	; 0x74c <lcd_puts2>
     1e4:	80 ed       	ldi	r24, 0xD0	; 208
     1e6:	97 e0       	ldi	r25, 0x07	; 7
     1e8:	0e 94 c1 02 	call	0x582	; 0x582 <wait_avr>
     1ec:	40 e0       	ldi	r20, 0x00	; 0
     1ee:	60 e0       	ldi	r22, 0x00	; 0
     1f0:	82 e0       	ldi	r24, 0x02	; 2
     1f2:	0e 94 65 00 	call	0xca	; 0xca <get_number>
     1f6:	18 2f       	mov	r17, r24
     1f8:	42 e0       	ldi	r20, 0x02	; 2
     1fa:	60 e0       	ldi	r22, 0x00	; 0
     1fc:	82 e0       	ldi	r24, 0x02	; 2
     1fe:	0e 94 65 00 	call	0xca	; 0xca <get_number>
     202:	f8 2e       	mov	r15, r24
     204:	44 e0       	ldi	r20, 0x04	; 4
     206:	60 e0       	ldi	r22, 0x00	; 0
     208:	82 e0       	ldi	r24, 0x02	; 2
     20a:	0e 94 65 00 	call	0xca	; 0xca <get_number>
     20e:	5c 01       	movw	r10, r24
     210:	4f 2d       	mov	r20, r15
     212:	61 2f       	mov	r22, r17
     214:	0e 94 9f 00 	call	0x13e	; 0x13e <validate_month_day_yr>
     218:	88 23       	and	r24, r24
     21a:	d1 f2       	breq	.-76     	; 0x1d0 <build_dt_24+0x22>
     21c:	0e 94 8b 03 	call	0x716	; 0x716 <lcd_clr>
     220:	60 e0       	ldi	r22, 0x00	; 0
     222:	80 e0       	ldi	r24, 0x00	; 0
     224:	0e 94 8f 03 	call	0x71e	; 0x71e <lcd_pos>
     228:	89 e6       	ldi	r24, 0x69	; 105
     22a:	90 e0       	ldi	r25, 0x00	; 0
     22c:	0e 94 a6 03 	call	0x74c	; 0x74c <lcd_puts2>
     230:	80 ed       	ldi	r24, 0xD0	; 208
     232:	97 e0       	ldi	r25, 0x07	; 7
     234:	0e 94 c1 02 	call	0x582	; 0x582 <wait_avr>
     238:	40 e0       	ldi	r20, 0x00	; 0
     23a:	61 e0       	ldi	r22, 0x01	; 1
     23c:	82 e0       	ldi	r24, 0x02	; 2
     23e:	0e 94 65 00 	call	0xca	; 0xca <get_number>
     242:	e8 2e       	mov	r14, r24
     244:	42 e0       	ldi	r20, 0x02	; 2
     246:	61 e0       	ldi	r22, 0x01	; 1
     248:	82 e0       	ldi	r24, 0x02	; 2
     24a:	0e 94 65 00 	call	0xca	; 0xca <get_number>
     24e:	08 2f       	mov	r16, r24
     250:	44 e0       	ldi	r20, 0x04	; 4
     252:	61 e0       	ldi	r22, 0x01	; 1
     254:	82 e0       	ldi	r24, 0x02	; 2
     256:	0e 94 65 00 	call	0xca	; 0xca <get_number>
     25a:	9c e3       	ldi	r25, 0x3C	; 60
     25c:	9e 15       	cp	r25, r14
     25e:	f0 f2       	brcs	.-68     	; 0x21c <build_dt_24+0x6e>
     260:	09 31       	cpi	r16, 0x19	; 25
     262:	e0 f6       	brcc	.-72     	; 0x21c <build_dt_24+0x6e>
     264:	8d 33       	cpi	r24, 0x3D	; 61
     266:	d0 f6       	brcc	.-76     	; 0x21c <build_dt_24+0x6e>
     268:	c8 2e       	mov	r12, r24
     26a:	2f 2d       	mov	r18, r15
     26c:	41 2f       	mov	r20, r17
     26e:	b5 01       	movw	r22, r10
     270:	ce 01       	movw	r24, r28
     272:	08 96       	adiw	r24, 0x08	; 8
     274:	0e 94 95 04 	call	0x92a	; 0x92a <init_dt_full>
     278:	87 e0       	ldi	r24, 0x07	; 7
     27a:	fe 01       	movw	r30, r28
     27c:	38 96       	adiw	r30, 0x08	; 8
     27e:	de 01       	movw	r26, r28
     280:	11 96       	adiw	r26, 0x01	; 1
     282:	01 90       	ld	r0, Z+
     284:	0d 92       	st	X+, r0
     286:	8a 95       	dec	r24
     288:	e1 f7       	brne	.-8      	; 0x282 <build_dt_24+0xd4>
     28a:	29 81       	ldd	r18, Y+1	; 0x01
     28c:	3a 81       	ldd	r19, Y+2	; 0x02
     28e:	4b 81       	ldd	r20, Y+3	; 0x03
     290:	5c 81       	ldd	r21, Y+4	; 0x04
     292:	6d 81       	ldd	r22, Y+5	; 0x05
     294:	7e 81       	ldd	r23, Y+6	; 0x06
     296:	8f 81       	ldd	r24, Y+7	; 0x07
     298:	90 e0       	ldi	r25, 0x00	; 0
     29a:	2e 96       	adiw	r28, 0x0e	; 14
     29c:	0f b6       	in	r0, 0x3f	; 63
     29e:	f8 94       	cli
     2a0:	de bf       	out	0x3e, r29	; 62
     2a2:	0f be       	out	0x3f, r0	; 63
     2a4:	cd bf       	out	0x3d, r28	; 61
     2a6:	df 91       	pop	r29
     2a8:	cf 91       	pop	r28
     2aa:	1f 91       	pop	r17
     2ac:	0f 91       	pop	r16
     2ae:	ff 90       	pop	r15
     2b0:	ef 90       	pop	r14
     2b2:	cf 90       	pop	r12
     2b4:	bf 90       	pop	r11
     2b6:	af 90       	pop	r10
     2b8:	08 95       	ret

000002ba <build_dt_12>:
     2ba:	8f 92       	push	r8
     2bc:	9f 92       	push	r9
     2be:	af 92       	push	r10
     2c0:	cf 92       	push	r12
     2c2:	ef 92       	push	r14
     2c4:	ff 92       	push	r15
     2c6:	0f 93       	push	r16
     2c8:	1f 93       	push	r17
     2ca:	cf 93       	push	r28
     2cc:	df 93       	push	r29
     2ce:	cd b7       	in	r28, 0x3d	; 61
     2d0:	de b7       	in	r29, 0x3e	; 62
     2d2:	60 97       	sbiw	r28, 0x10	; 16
     2d4:	0f b6       	in	r0, 0x3f	; 63
     2d6:	f8 94       	cli
     2d8:	de bf       	out	0x3e, r29	; 62
     2da:	0f be       	out	0x3f, r0	; 63
     2dc:	cd bf       	out	0x3d, r28	; 61
     2de:	0e 94 8b 03 	call	0x716	; 0x716 <lcd_clr>
     2e2:	60 e0       	ldi	r22, 0x00	; 0
     2e4:	80 e0       	ldi	r24, 0x00	; 0
     2e6:	0e 94 8f 03 	call	0x71e	; 0x71e <lcd_pos>
     2ea:	80 e6       	ldi	r24, 0x60	; 96
     2ec:	90 e0       	ldi	r25, 0x00	; 0
     2ee:	0e 94 a6 03 	call	0x74c	; 0x74c <lcd_puts2>
     2f2:	80 ed       	ldi	r24, 0xD0	; 208
     2f4:	97 e0       	ldi	r25, 0x07	; 7
     2f6:	0e 94 c1 02 	call	0x582	; 0x582 <wait_avr>
     2fa:	40 e0       	ldi	r20, 0x00	; 0
     2fc:	60 e0       	ldi	r22, 0x00	; 0
     2fe:	82 e0       	ldi	r24, 0x02	; 2
     300:	0e 94 65 00 	call	0xca	; 0xca <get_number>
     304:	18 2f       	mov	r17, r24
     306:	42 e0       	ldi	r20, 0x02	; 2
     308:	60 e0       	ldi	r22, 0x00	; 0
     30a:	82 e0       	ldi	r24, 0x02	; 2
     30c:	0e 94 65 00 	call	0xca	; 0xca <get_number>
     310:	f8 2e       	mov	r15, r24
     312:	44 e0       	ldi	r20, 0x04	; 4
     314:	60 e0       	ldi	r22, 0x00	; 0
     316:	82 e0       	ldi	r24, 0x02	; 2
     318:	0e 94 65 00 	call	0xca	; 0xca <get_number>
     31c:	4c 01       	movw	r8, r24
     31e:	4f 2d       	mov	r20, r15
     320:	61 2f       	mov	r22, r17
     322:	0e 94 9f 00 	call	0x13e	; 0x13e <validate_month_day_yr>
     326:	88 23       	and	r24, r24
     328:	d1 f2       	breq	.-76     	; 0x2de <build_dt_12+0x24>
     32a:	0e 94 8b 03 	call	0x716	; 0x716 <lcd_clr>
     32e:	60 e0       	ldi	r22, 0x00	; 0
     330:	80 e0       	ldi	r24, 0x00	; 0
     332:	0e 94 8f 03 	call	0x71e	; 0x71e <lcd_pos>
     336:	89 e6       	ldi	r24, 0x69	; 105
     338:	90 e0       	ldi	r25, 0x00	; 0
     33a:	0e 94 a6 03 	call	0x74c	; 0x74c <lcd_puts2>
     33e:	80 ed       	ldi	r24, 0xD0	; 208
     340:	97 e0       	ldi	r25, 0x07	; 7
     342:	0e 94 c1 02 	call	0x582	; 0x582 <wait_avr>
     346:	40 e0       	ldi	r20, 0x00	; 0
     348:	61 e0       	ldi	r22, 0x01	; 1
     34a:	82 e0       	ldi	r24, 0x02	; 2
     34c:	0e 94 65 00 	call	0xca	; 0xca <get_number>
     350:	e8 2e       	mov	r14, r24
     352:	42 e0       	ldi	r20, 0x02	; 2
     354:	61 e0       	ldi	r22, 0x01	; 1
     356:	82 e0       	ldi	r24, 0x02	; 2
     358:	0e 94 65 00 	call	0xca	; 0xca <get_number>
     35c:	08 2f       	mov	r16, r24
     35e:	44 e0       	ldi	r20, 0x04	; 4
     360:	61 e0       	ldi	r22, 0x01	; 1
     362:	82 e0       	ldi	r24, 0x02	; 2
     364:	0e 94 65 00 	call	0xca	; 0xca <get_number>
     368:	c8 2e       	mov	r12, r24
     36a:	46 e0       	ldi	r20, 0x06	; 6
     36c:	61 e0       	ldi	r22, 0x01	; 1
     36e:	81 e0       	ldi	r24, 0x01	; 1
     370:	0e 94 65 00 	call	0xca	; 0xca <get_number>
     374:	9c e3       	ldi	r25, 0x3C	; 60
     376:	9e 15       	cp	r25, r14
     378:	c0 f2       	brcs	.-80     	; 0x32a <build_dt_12+0x70>
     37a:	09 31       	cpi	r16, 0x19	; 25
     37c:	b0 f6       	brcc	.-84     	; 0x32a <build_dt_12+0x70>
     37e:	9c 15       	cp	r25, r12
     380:	a0 f2       	brcs	.-88     	; 0x32a <build_dt_12+0x70>
     382:	aa 24       	eor	r10, r10
     384:	a3 94       	inc	r10
     386:	81 11       	cpse	r24, r1
     388:	01 c0       	rjmp	.+2      	; 0x38c <build_dt_12+0xd2>
     38a:	a1 2c       	mov	r10, r1
     38c:	2f 2d       	mov	r18, r15
     38e:	41 2f       	mov	r20, r17
     390:	b4 01       	movw	r22, r8
     392:	ce 01       	movw	r24, r28
     394:	09 96       	adiw	r24, 0x09	; 9
     396:	0e 94 a4 04 	call	0x948	; 0x948 <init_dt_twelve_full>
     39a:	88 e0       	ldi	r24, 0x08	; 8
     39c:	fe 01       	movw	r30, r28
     39e:	39 96       	adiw	r30, 0x09	; 9
     3a0:	de 01       	movw	r26, r28
     3a2:	11 96       	adiw	r26, 0x01	; 1
     3a4:	01 90       	ld	r0, Z+
     3a6:	0d 92       	st	X+, r0
     3a8:	8a 95       	dec	r24
     3aa:	e1 f7       	brne	.-8      	; 0x3a4 <build_dt_12+0xea>
     3ac:	29 81       	ldd	r18, Y+1	; 0x01
     3ae:	3a 81       	ldd	r19, Y+2	; 0x02
     3b0:	4b 81       	ldd	r20, Y+3	; 0x03
     3b2:	5c 81       	ldd	r21, Y+4	; 0x04
     3b4:	6d 81       	ldd	r22, Y+5	; 0x05
     3b6:	7e 81       	ldd	r23, Y+6	; 0x06
     3b8:	8f 81       	ldd	r24, Y+7	; 0x07
     3ba:	98 85       	ldd	r25, Y+8	; 0x08
     3bc:	60 96       	adiw	r28, 0x10	; 16
     3be:	0f b6       	in	r0, 0x3f	; 63
     3c0:	f8 94       	cli
     3c2:	de bf       	out	0x3e, r29	; 62
     3c4:	0f be       	out	0x3f, r0	; 63
     3c6:	cd bf       	out	0x3d, r28	; 61
     3c8:	df 91       	pop	r29
     3ca:	cf 91       	pop	r28
     3cc:	1f 91       	pop	r17
     3ce:	0f 91       	pop	r16
     3d0:	ff 90       	pop	r15
     3d2:	ef 90       	pop	r14
     3d4:	cf 90       	pop	r12
     3d6:	af 90       	pop	r10
     3d8:	9f 90       	pop	r9
     3da:	8f 90       	pop	r8
     3dc:	08 95       	ret

000003de <alter_output_24>:
     3de:	cf 93       	push	r28
     3e0:	df 93       	push	r29
     3e2:	ec 01       	movw	r28, r24
     3e4:	0e 94 06 05 	call	0xa0c	; 0xa0c <advance_dt>
     3e8:	ce 01       	movw	r24, r28
     3ea:	df 91       	pop	r29
     3ec:	cf 91       	pop	r28
     3ee:	0c 94 81 05 	jmp	0xb02	; 0xb02 <print_dt>

000003f2 <alter_output_12>:
     3f2:	cf 93       	push	r28
     3f4:	df 93       	push	r29
     3f6:	ec 01       	movw	r28, r24
     3f8:	0e 94 3f 05 	call	0xa7e	; 0xa7e <advance_dt_twelve>
     3fc:	ce 01       	movw	r24, r28
     3fe:	df 91       	pop	r29
     400:	cf 91       	pop	r28
     402:	0c 94 26 04 	jmp	0x84c	; 0x84c <print_dt_twelve>

00000406 <hr_24_sm>:
     406:	cf 93       	push	r28
     408:	df 93       	push	r29
     40a:	ec 01       	movw	r28, r24
     40c:	80 91 d0 00 	lds	r24, 0x00D0	; 0x8000d0 <__data_end>
     410:	81 11       	cpse	r24, r1
     412:	1c c0       	rjmp	.+56     	; 0x44c <hr_24_sm+0x46>
     414:	ce 01       	movw	r24, r28
     416:	0e 94 ef 01 	call	0x3de	; 0x3de <alter_output_24>
     41a:	0e 94 35 03 	call	0x66a	; 0x66a <get_char>
     41e:	83 32       	cpi	r24, 0x23	; 35
     420:	51 f4       	brne	.+20     	; 0x436 <hr_24_sm+0x30>
     422:	0e 94 d7 00 	call	0x1ae	; 0x1ae <build_dt_24>
     426:	28 83       	st	Y, r18
     428:	39 83       	std	Y+1, r19	; 0x01
     42a:	4a 83       	std	Y+2, r20	; 0x02
     42c:	5b 83       	std	Y+3, r21	; 0x03
     42e:	6c 83       	std	Y+4, r22	; 0x04
     430:	7d 83       	std	Y+5, r23	; 0x05
     432:	8e 83       	std	Y+6, r24	; 0x06
     434:	06 c0       	rjmp	.+12     	; 0x442 <hr_24_sm+0x3c>
     436:	81 34       	cpi	r24, 0x41	; 65
     438:	21 f4       	brne	.+8      	; 0x442 <hr_24_sm+0x3c>
     43a:	81 e0       	ldi	r24, 0x01	; 1
     43c:	80 93 d0 00 	sts	0x00D0, r24	; 0x8000d0 <__data_end>
     440:	05 c0       	rjmp	.+10     	; 0x44c <hr_24_sm+0x46>
     442:	88 ee       	ldi	r24, 0xE8	; 232
     444:	93 e0       	ldi	r25, 0x03	; 3
     446:	0e 94 c1 02 	call	0x582	; 0x582 <wait_avr>
     44a:	e0 cf       	rjmp	.-64     	; 0x40c <hr_24_sm+0x6>
     44c:	ce 01       	movw	r24, r28
     44e:	df 91       	pop	r29
     450:	cf 91       	pop	r28
     452:	08 95       	ret

00000454 <hr_12_sm>:
     454:	cf 93       	push	r28
     456:	df 93       	push	r29
     458:	ec 01       	movw	r28, r24
     45a:	80 91 d0 00 	lds	r24, 0x00D0	; 0x8000d0 <__data_end>
     45e:	81 30       	cpi	r24, 0x01	; 1
     460:	e1 f4       	brne	.+56     	; 0x49a <hr_12_sm+0x46>
     462:	ce 01       	movw	r24, r28
     464:	0e 94 f9 01 	call	0x3f2	; 0x3f2 <alter_output_12>
     468:	0e 94 35 03 	call	0x66a	; 0x66a <get_char>
     46c:	83 32       	cpi	r24, 0x23	; 35
     46e:	59 f4       	brne	.+22     	; 0x486 <hr_12_sm+0x32>
     470:	0e 94 5d 01 	call	0x2ba	; 0x2ba <build_dt_12>
     474:	28 83       	st	Y, r18
     476:	39 83       	std	Y+1, r19	; 0x01
     478:	4a 83       	std	Y+2, r20	; 0x02
     47a:	5b 83       	std	Y+3, r21	; 0x03
     47c:	6c 83       	std	Y+4, r22	; 0x04
     47e:	7d 83       	std	Y+5, r23	; 0x05
     480:	8e 83       	std	Y+6, r24	; 0x06
     482:	9f 83       	std	Y+7, r25	; 0x07
     484:	05 c0       	rjmp	.+10     	; 0x490 <hr_12_sm+0x3c>
     486:	81 34       	cpi	r24, 0x41	; 65
     488:	19 f4       	brne	.+6      	; 0x490 <hr_12_sm+0x3c>
     48a:	10 92 d0 00 	sts	0x00D0, r1	; 0x8000d0 <__data_end>
     48e:	05 c0       	rjmp	.+10     	; 0x49a <hr_12_sm+0x46>
     490:	88 ee       	ldi	r24, 0xE8	; 232
     492:	93 e0       	ldi	r25, 0x03	; 3
     494:	0e 94 c1 02 	call	0x582	; 0x582 <wait_avr>
     498:	e0 cf       	rjmp	.-64     	; 0x45a <hr_12_sm+0x6>
     49a:	ce 01       	movw	r24, r28
     49c:	df 91       	pop	r29
     49e:	cf 91       	pop	r28
     4a0:	08 95       	ret

000004a2 <main_driver>:
     4a2:	cf 93       	push	r28
     4a4:	df 93       	push	r29
     4a6:	cd b7       	in	r28, 0x3d	; 61
     4a8:	de b7       	in	r29, 0x3e	; 62
     4aa:	2f 97       	sbiw	r28, 0x0f	; 15
     4ac:	0f b6       	in	r0, 0x3f	; 63
     4ae:	f8 94       	cli
     4b0:	de bf       	out	0x3e, r29	; 62
     4b2:	0f be       	out	0x3f, r0	; 63
     4b4:	cd bf       	out	0x3d, r28	; 61
     4b6:	0e 94 64 03 	call	0x6c8	; 0x6c8 <lcd_init>
     4ba:	0e 94 8b 03 	call	0x716	; 0x716 <lcd_clr>
     4be:	0e 94 54 00 	call	0xa8	; 0xa8 <wait_for_init_mode_change>
     4c2:	80 91 d0 00 	lds	r24, 0x00D0	; 0x8000d0 <__data_end>
     4c6:	81 30       	cpi	r24, 0x01	; 1
     4c8:	59 f4       	brne	.+22     	; 0x4e0 <main_driver+0x3e>
     4ca:	0e 94 5d 01 	call	0x2ba	; 0x2ba <build_dt_12>
     4ce:	29 83       	std	Y+1, r18	; 0x01
     4d0:	3a 83       	std	Y+2, r19	; 0x02
     4d2:	4b 83       	std	Y+3, r20	; 0x03
     4d4:	5c 83       	std	Y+4, r21	; 0x04
     4d6:	6d 83       	std	Y+5, r22	; 0x05
     4d8:	7e 83       	std	Y+6, r23	; 0x06
     4da:	8f 83       	std	Y+7, r24	; 0x07
     4dc:	98 87       	std	Y+8, r25	; 0x08
     4de:	09 c0       	rjmp	.+18     	; 0x4f2 <main_driver+0x50>
     4e0:	0e 94 d7 00 	call	0x1ae	; 0x1ae <build_dt_24>
     4e4:	29 87       	std	Y+9, r18	; 0x09
     4e6:	3a 87       	std	Y+10, r19	; 0x0a
     4e8:	4b 87       	std	Y+11, r20	; 0x0b
     4ea:	5c 87       	std	Y+12, r21	; 0x0c
     4ec:	6d 87       	std	Y+13, r22	; 0x0d
     4ee:	7e 87       	std	Y+14, r23	; 0x0e
     4f0:	8f 87       	std	Y+15, r24	; 0x0f
     4f2:	80 91 d0 00 	lds	r24, 0x00D0	; 0x8000d0 <__data_end>
     4f6:	81 30       	cpi	r24, 0x01	; 1
     4f8:	71 f4       	brne	.+28     	; 0x516 <main_driver+0x74>
     4fa:	ce 01       	movw	r24, r28
     4fc:	01 96       	adiw	r24, 0x01	; 1
     4fe:	0e 94 2a 02 	call	0x454	; 0x454 <hr_12_sm>
     502:	0e 94 b3 03 	call	0x766	; 0x766 <conv_twelve_to_military>
     506:	29 87       	std	Y+9, r18	; 0x09
     508:	3a 87       	std	Y+10, r19	; 0x0a
     50a:	4b 87       	std	Y+11, r20	; 0x0b
     50c:	5c 87       	std	Y+12, r21	; 0x0c
     50e:	6d 87       	std	Y+13, r22	; 0x0d
     510:	7e 87       	std	Y+14, r23	; 0x0e
     512:	8f 87       	std	Y+15, r24	; 0x0f
     514:	10 c0       	rjmp	.+32     	; 0x536 <main_driver+0x94>
     516:	81 11       	cpse	r24, r1
     518:	ec cf       	rjmp	.-40     	; 0x4f2 <main_driver+0x50>
     51a:	ce 01       	movw	r24, r28
     51c:	09 96       	adiw	r24, 0x09	; 9
     51e:	0e 94 03 02 	call	0x406	; 0x406 <hr_24_sm>
     522:	0e 94 ef 03 	call	0x7de	; 0x7de <conv_military_to_twelve>
     526:	29 83       	std	Y+1, r18	; 0x01
     528:	3a 83       	std	Y+2, r19	; 0x02
     52a:	4b 83       	std	Y+3, r20	; 0x03
     52c:	5c 83       	std	Y+4, r21	; 0x04
     52e:	6d 83       	std	Y+5, r22	; 0x05
     530:	7e 83       	std	Y+6, r23	; 0x06
     532:	8f 83       	std	Y+7, r24	; 0x07
     534:	98 87       	std	Y+8, r25	; 0x08
     536:	0e 94 8b 03 	call	0x716	; 0x716 <lcd_clr>
     53a:	db cf       	rjmp	.-74     	; 0x4f2 <main_driver+0x50>

0000053c <main>:
     53c:	0e 94 51 02 	call	0x4a2	; 0x4a2 <main_driver>

00000540 <set_port>:
     540:	21 e0       	ldi	r18, 0x01	; 1
     542:	30 e0       	ldi	r19, 0x00	; 0
     544:	01 c0       	rjmp	.+2      	; 0x548 <set_port+0x8>
     546:	22 0f       	add	r18, r18
     548:	6a 95       	dec	r22
     54a:	ea f7       	brpl	.-6      	; 0x546 <set_port+0x6>
     54c:	fc 01       	movw	r30, r24
     54e:	30 81       	ld	r19, Z
     550:	23 2b       	or	r18, r19
     552:	20 83       	st	Z, r18
     554:	08 95       	ret

00000556 <clear_port>:
     556:	21 e0       	ldi	r18, 0x01	; 1
     558:	30 e0       	ldi	r19, 0x00	; 0
     55a:	01 c0       	rjmp	.+2      	; 0x55e <clear_port+0x8>
     55c:	22 0f       	add	r18, r18
     55e:	6a 95       	dec	r22
     560:	ea f7       	brpl	.-6      	; 0x55c <clear_port+0x6>
     562:	20 95       	com	r18
     564:	fc 01       	movw	r30, r24
     566:	30 81       	ld	r19, Z
     568:	23 23       	and	r18, r19
     56a:	20 83       	st	Z, r18
     56c:	08 95       	ret

0000056e <get_pin>:
     56e:	21 e0       	ldi	r18, 0x01	; 1
     570:	30 e0       	ldi	r19, 0x00	; 0
     572:	01 c0       	rjmp	.+2      	; 0x576 <get_pin+0x8>
     574:	22 0f       	add	r18, r18
     576:	6a 95       	dec	r22
     578:	ea f7       	brpl	.-6      	; 0x574 <get_pin+0x6>
     57a:	fc 01       	movw	r30, r24
     57c:	80 81       	ld	r24, Z
     57e:	82 23       	and	r24, r18
     580:	08 95       	ret

00000582 <wait_avr>:
     582:	23 e0       	ldi	r18, 0x03	; 3
     584:	23 bf       	out	0x33, r18	; 51
     586:	33 e8       	ldi	r19, 0x83	; 131
     588:	01 97       	sbiw	r24, 0x01	; 1
     58a:	40 f0       	brcs	.+16     	; 0x59c <wait_avr+0x1a>
     58c:	32 bf       	out	0x32, r19	; 50
     58e:	28 b7       	in	r18, 0x38	; 56
     590:	21 60       	ori	r18, 0x01	; 1
     592:	28 bf       	out	0x38, r18	; 56
     594:	08 b6       	in	r0, 0x38	; 56
     596:	00 fe       	sbrs	r0, 0
     598:	fd cf       	rjmp	.-6      	; 0x594 <wait_avr+0x12>
     59a:	f6 cf       	rjmp	.-20     	; 0x588 <wait_avr+0x6>
     59c:	13 be       	out	0x33, r1	; 51
     59e:	08 95       	ret

000005a0 <is_pressed>:
     5a0:	ef 92       	push	r14
     5a2:	ff 92       	push	r15
     5a4:	0f 93       	push	r16
     5a6:	1f 93       	push	r17
     5a8:	cf 93       	push	r28
     5aa:	df 93       	push	r29
     5ac:	7c 01       	movw	r14, r24
     5ae:	1a ba       	out	0x1a, r1	; 26
     5b0:	1b ba       	out	0x1b, r1	; 27
     5b2:	c3 e0       	ldi	r28, 0x03	; 3
     5b4:	d0 e0       	ldi	r29, 0x00	; 0
     5b6:	8e 01       	movw	r16, r28
     5b8:	06 1b       	sub	r16, r22
     5ba:	17 0b       	sbc	r17, r23
     5bc:	60 2f       	mov	r22, r16
     5be:	8a e3       	ldi	r24, 0x3A	; 58
     5c0:	90 e0       	ldi	r25, 0x00	; 0
     5c2:	0e 94 a0 02 	call	0x540	; 0x540 <set_port>
     5c6:	60 2f       	mov	r22, r16
     5c8:	8b e3       	ldi	r24, 0x3B	; 59
     5ca:	90 e0       	ldi	r25, 0x00	; 0
     5cc:	0e 94 ab 02 	call	0x556	; 0x556 <clear_port>
     5d0:	ce 19       	sub	r28, r14
     5d2:	df 09       	sbc	r29, r15
     5d4:	cc 5f       	subi	r28, 0xFC	; 252
     5d6:	6c 2f       	mov	r22, r28
     5d8:	8a e3       	ldi	r24, 0x3A	; 58
     5da:	90 e0       	ldi	r25, 0x00	; 0
     5dc:	0e 94 ab 02 	call	0x556	; 0x556 <clear_port>
     5e0:	6c 2f       	mov	r22, r28
     5e2:	8b e3       	ldi	r24, 0x3B	; 59
     5e4:	90 e0       	ldi	r25, 0x00	; 0
     5e6:	0e 94 a0 02 	call	0x540	; 0x540 <set_port>
     5ea:	8a e0       	ldi	r24, 0x0A	; 10
     5ec:	90 e0       	ldi	r25, 0x00	; 0
     5ee:	0e 94 c1 02 	call	0x582	; 0x582 <wait_avr>
     5f2:	6c 2f       	mov	r22, r28
     5f4:	89 e3       	ldi	r24, 0x39	; 57
     5f6:	90 e0       	ldi	r25, 0x00	; 0
     5f8:	0e 94 b7 02 	call	0x56e	; 0x56e <get_pin>
     5fc:	81 11       	cpse	r24, r1
     5fe:	07 c0       	rjmp	.+14     	; 0x60e <is_pressed+0x6e>
     600:	8a e0       	ldi	r24, 0x0A	; 10
     602:	90 e0       	ldi	r25, 0x00	; 0
     604:	0e 94 c1 02 	call	0x582	; 0x582 <wait_avr>
     608:	81 e0       	ldi	r24, 0x01	; 1
     60a:	90 e0       	ldi	r25, 0x00	; 0
     60c:	02 c0       	rjmp	.+4      	; 0x612 <is_pressed+0x72>
     60e:	80 e0       	ldi	r24, 0x00	; 0
     610:	90 e0       	ldi	r25, 0x00	; 0
     612:	df 91       	pop	r29
     614:	cf 91       	pop	r28
     616:	1f 91       	pop	r17
     618:	0f 91       	pop	r16
     61a:	ff 90       	pop	r15
     61c:	ef 90       	pop	r14
     61e:	08 95       	ret

00000620 <get_key>:
     620:	0f 93       	push	r16
     622:	1f 93       	push	r17
     624:	cf 93       	push	r28
     626:	df 93       	push	r29
     628:	00 e0       	ldi	r16, 0x00	; 0
     62a:	10 e0       	ldi	r17, 0x00	; 0
     62c:	c0 e0       	ldi	r28, 0x00	; 0
     62e:	d0 e0       	ldi	r29, 0x00	; 0
     630:	be 01       	movw	r22, r28
     632:	c8 01       	movw	r24, r16
     634:	0e 94 d0 02 	call	0x5a0	; 0x5a0 <is_pressed>
     638:	00 97       	sbiw	r24, 0x00	; 0
     63a:	49 f0       	breq	.+18     	; 0x64e <get_key+0x2e>
     63c:	00 0f       	add	r16, r16
     63e:	11 1f       	adc	r17, r17
     640:	00 0f       	add	r16, r16
     642:	11 1f       	adc	r17, r17
     644:	c0 0f       	add	r28, r16
     646:	d1 1f       	adc	r29, r17
     648:	ce 01       	movw	r24, r28
     64a:	01 96       	adiw	r24, 0x01	; 1
     64c:	09 c0       	rjmp	.+18     	; 0x660 <get_key+0x40>
     64e:	21 96       	adiw	r28, 0x01	; 1
     650:	c4 30       	cpi	r28, 0x04	; 4
     652:	d1 05       	cpc	r29, r1
     654:	69 f7       	brne	.-38     	; 0x630 <get_key+0x10>
     656:	0f 5f       	subi	r16, 0xFF	; 255
     658:	1f 4f       	sbci	r17, 0xFF	; 255
     65a:	04 30       	cpi	r16, 0x04	; 4
     65c:	11 05       	cpc	r17, r1
     65e:	31 f7       	brne	.-52     	; 0x62c <get_key+0xc>
     660:	df 91       	pop	r29
     662:	cf 91       	pop	r28
     664:	1f 91       	pop	r17
     666:	0f 91       	pop	r16
     668:	08 95       	ret

0000066a <get_char>:
     66a:	cf 93       	push	r28
     66c:	df 93       	push	r29
     66e:	0e 94 10 03 	call	0x620	; 0x620 <get_key>
     672:	ec 01       	movw	r28, r24
     674:	84 ef       	ldi	r24, 0xF4	; 244
     676:	91 e0       	ldi	r25, 0x01	; 1
     678:	0e 94 c1 02 	call	0x582	; 0x582 <wait_avr>
     67c:	cc 0f       	add	r28, r28
     67e:	dd 1f       	adc	r29, r29
     680:	c4 58       	subi	r28, 0x84	; 132
     682:	df 4f       	sbci	r29, 0xFF	; 255
     684:	88 81       	ld	r24, Y
     686:	df 91       	pop	r29
     688:	cf 91       	pop	r28
     68a:	08 95       	ret

0000068c <output>:
     68c:	66 23       	and	r22, r22
     68e:	11 f0       	breq	.+4      	; 0x694 <output+0x8>
     690:	c0 9a       	sbi	0x18, 0	; 24
     692:	01 c0       	rjmp	.+2      	; 0x696 <output+0xa>
     694:	c0 98       	cbi	0x18, 0	; 24
     696:	c1 98       	cbi	0x18, 1	; 24
     698:	82 bb       	out	0x12, r24	; 18
     69a:	8f ef       	ldi	r24, 0xFF	; 255
     69c:	81 bb       	out	0x11, r24	; 17
     69e:	c2 9a       	sbi	0x18, 2	; 24
     6a0:	00 00       	nop
     6a2:	00 00       	nop
     6a4:	00 00       	nop
     6a6:	c2 98       	cbi	0x18, 2	; 24
     6a8:	08 95       	ret

000006aa <write>:
     6aa:	c0 98       	cbi	0x18, 0	; 24
     6ac:	c1 9a       	sbi	0x18, 1	; 24
     6ae:	11 ba       	out	0x11, r1	; 17
     6b0:	90 b3       	in	r25, 0x10	; 16
     6b2:	c2 9a       	sbi	0x18, 2	; 24
     6b4:	00 00       	nop
     6b6:	00 00       	nop
     6b8:	00 00       	nop
     6ba:	11 ba       	out	0x11, r1	; 17
     6bc:	90 b3       	in	r25, 0x10	; 16
     6be:	c2 98       	cbi	0x18, 2	; 24
     6c0:	97 fd       	sbrc	r25, 7
     6c2:	f3 cf       	rjmp	.-26     	; 0x6aa <write>
     6c4:	0c 94 46 03 	jmp	0x68c	; 0x68c <output>

000006c8 <lcd_init>:
     6c8:	b8 9a       	sbi	0x17, 0	; 23
     6ca:	b9 9a       	sbi	0x17, 1	; 23
     6cc:	ba 9a       	sbi	0x17, 2	; 23
     6ce:	80 e1       	ldi	r24, 0x10	; 16
     6d0:	90 e0       	ldi	r25, 0x00	; 0
     6d2:	0e 94 c1 02 	call	0x582	; 0x582 <wait_avr>
     6d6:	60 e0       	ldi	r22, 0x00	; 0
     6d8:	80 e3       	ldi	r24, 0x30	; 48
     6da:	0e 94 46 03 	call	0x68c	; 0x68c <output>
     6de:	85 e0       	ldi	r24, 0x05	; 5
     6e0:	90 e0       	ldi	r25, 0x00	; 0
     6e2:	0e 94 c1 02 	call	0x582	; 0x582 <wait_avr>
     6e6:	60 e0       	ldi	r22, 0x00	; 0
     6e8:	80 e3       	ldi	r24, 0x30	; 48
     6ea:	0e 94 46 03 	call	0x68c	; 0x68c <output>
     6ee:	81 e0       	ldi	r24, 0x01	; 1
     6f0:	90 e0       	ldi	r25, 0x00	; 0
     6f2:	0e 94 c1 02 	call	0x582	; 0x582 <wait_avr>
     6f6:	60 e0       	ldi	r22, 0x00	; 0
     6f8:	8c e3       	ldi	r24, 0x3C	; 60
     6fa:	0e 94 55 03 	call	0x6aa	; 0x6aa <write>
     6fe:	60 e0       	ldi	r22, 0x00	; 0
     700:	8c e0       	ldi	r24, 0x0C	; 12
     702:	0e 94 55 03 	call	0x6aa	; 0x6aa <write>
     706:	60 e0       	ldi	r22, 0x00	; 0
     708:	86 e0       	ldi	r24, 0x06	; 6
     70a:	0e 94 55 03 	call	0x6aa	; 0x6aa <write>
     70e:	60 e0       	ldi	r22, 0x00	; 0
     710:	81 e0       	ldi	r24, 0x01	; 1
     712:	0c 94 55 03 	jmp	0x6aa	; 0x6aa <write>

00000716 <lcd_clr>:
     716:	60 e0       	ldi	r22, 0x00	; 0
     718:	81 e0       	ldi	r24, 0x01	; 1
     71a:	0c 94 55 03 	jmp	0x6aa	; 0x6aa <write>

0000071e <lcd_pos>:
     71e:	cf 93       	push	r28
     720:	c6 2f       	mov	r28, r22
     722:	98 e2       	ldi	r25, 0x28	; 40
     724:	89 9f       	mul	r24, r25
     726:	c0 0d       	add	r28, r0
     728:	11 24       	eor	r1, r1
     72a:	60 e0       	ldi	r22, 0x00	; 0
     72c:	82 e0       	ldi	r24, 0x02	; 2
     72e:	0e 94 55 03 	call	0x6aa	; 0x6aa <write>
     732:	cc 23       	and	r28, r28
     734:	31 f0       	breq	.+12     	; 0x742 <lcd_pos+0x24>
     736:	60 e0       	ldi	r22, 0x00	; 0
     738:	84 e1       	ldi	r24, 0x14	; 20
     73a:	0e 94 55 03 	call	0x6aa	; 0x6aa <write>
     73e:	c1 50       	subi	r28, 0x01	; 1
     740:	f8 cf       	rjmp	.-16     	; 0x732 <lcd_pos+0x14>
     742:	cf 91       	pop	r28
     744:	08 95       	ret

00000746 <lcd_put>:
     746:	61 e0       	ldi	r22, 0x01	; 1
     748:	0c 94 55 03 	jmp	0x6aa	; 0x6aa <write>

0000074c <lcd_puts2>:
     74c:	cf 93       	push	r28
     74e:	df 93       	push	r29
     750:	ec 01       	movw	r28, r24
     752:	89 91       	ld	r24, Y+
     754:	88 23       	and	r24, r24
     756:	21 f0       	breq	.+8      	; 0x760 <lcd_puts2+0x14>
     758:	61 e0       	ldi	r22, 0x01	; 1
     75a:	0e 94 55 03 	call	0x6aa	; 0x6aa <write>
     75e:	f9 cf       	rjmp	.-14     	; 0x752 <lcd_puts2+0x6>
     760:	df 91       	pop	r29
     762:	cf 91       	pop	r28
     764:	08 95       	ret

00000766 <conv_twelve_to_military>:
     766:	cf 93       	push	r28
     768:	df 93       	push	r29
     76a:	cd b7       	in	r28, 0x3d	; 61
     76c:	de b7       	in	r29, 0x3e	; 62
     76e:	2e 97       	sbiw	r28, 0x0e	; 14
     770:	0f b6       	in	r0, 0x3f	; 63
     772:	f8 94       	cli
     774:	de bf       	out	0x3e, r29	; 62
     776:	0f be       	out	0x3f, r0	; 63
     778:	cd bf       	out	0x3d, r28	; 61
     77a:	fc 01       	movw	r30, r24
     77c:	27 81       	ldd	r18, Z+7	; 0x07
     77e:	22 23       	and	r18, r18
     780:	41 f0       	breq	.+16     	; 0x792 <conv_twelve_to_military+0x2c>
     782:	27 e0       	ldi	r18, 0x07	; 7
     784:	de 01       	movw	r26, r28
     786:	11 96       	adiw	r26, 0x01	; 1
     788:	01 90       	ld	r0, Z+
     78a:	0d 92       	st	X+, r0
     78c:	2a 95       	dec	r18
     78e:	e1 f7       	brne	.-8      	; 0x788 <conv_twelve_to_military+0x22>
     790:	15 c0       	rjmp	.+42     	; 0x7bc <conv_twelve_to_military+0x56>
     792:	27 e0       	ldi	r18, 0x07	; 7
     794:	fc 01       	movw	r30, r24
     796:	de 01       	movw	r26, r28
     798:	18 96       	adiw	r26, 0x08	; 8
     79a:	01 90       	ld	r0, Z+
     79c:	0d 92       	st	X+, r0
     79e:	2a 95       	dec	r18
     7a0:	e1 f7       	brne	.-8      	; 0x79a <conv_twelve_to_military+0x34>
     7a2:	fc 01       	movw	r30, r24
     7a4:	84 81       	ldd	r24, Z+4	; 0x04
     7a6:	84 5f       	subi	r24, 0xF4	; 244
     7a8:	8c 87       	std	Y+12, r24	; 0x0c
     7aa:	87 e0       	ldi	r24, 0x07	; 7
     7ac:	fe 01       	movw	r30, r28
     7ae:	38 96       	adiw	r30, 0x08	; 8
     7b0:	de 01       	movw	r26, r28
     7b2:	11 96       	adiw	r26, 0x01	; 1
     7b4:	01 90       	ld	r0, Z+
     7b6:	0d 92       	st	X+, r0
     7b8:	8a 95       	dec	r24
     7ba:	e1 f7       	brne	.-8      	; 0x7b4 <conv_twelve_to_military+0x4e>
     7bc:	29 81       	ldd	r18, Y+1	; 0x01
     7be:	3a 81       	ldd	r19, Y+2	; 0x02
     7c0:	4b 81       	ldd	r20, Y+3	; 0x03
     7c2:	5c 81       	ldd	r21, Y+4	; 0x04
     7c4:	6d 81       	ldd	r22, Y+5	; 0x05
     7c6:	7e 81       	ldd	r23, Y+6	; 0x06
     7c8:	8f 81       	ldd	r24, Y+7	; 0x07
     7ca:	90 e0       	ldi	r25, 0x00	; 0
     7cc:	2e 96       	adiw	r28, 0x0e	; 14
     7ce:	0f b6       	in	r0, 0x3f	; 63
     7d0:	f8 94       	cli
     7d2:	de bf       	out	0x3e, r29	; 62
     7d4:	0f be       	out	0x3f, r0	; 63
     7d6:	cd bf       	out	0x3d, r28	; 61
     7d8:	df 91       	pop	r29
     7da:	cf 91       	pop	r28
     7dc:	08 95       	ret

000007de <conv_military_to_twelve>:
     7de:	cf 93       	push	r28
     7e0:	df 93       	push	r29
     7e2:	cd b7       	in	r28, 0x3d	; 61
     7e4:	de b7       	in	r29, 0x3e	; 62
     7e6:	60 97       	sbiw	r28, 0x10	; 16
     7e8:	0f b6       	in	r0, 0x3f	; 63
     7ea:	f8 94       	cli
     7ec:	de bf       	out	0x3e, r29	; 62
     7ee:	0f be       	out	0x3f, r0	; 63
     7f0:	cd bf       	out	0x3d, r28	; 61
     7f2:	fc 01       	movw	r30, r24
     7f4:	94 81       	ldd	r25, Z+4	; 0x04
     7f6:	87 e0       	ldi	r24, 0x07	; 7
     7f8:	de 01       	movw	r26, r28
     7fa:	19 96       	adiw	r26, 0x09	; 9
     7fc:	01 90       	ld	r0, Z+
     7fe:	0d 92       	st	X+, r0
     800:	8a 95       	dec	r24
     802:	e1 f7       	brne	.-8      	; 0x7fc <conv_military_to_twelve+0x1e>
     804:	9c 30       	cpi	r25, 0x0C	; 12
     806:	10 f4       	brcc	.+4      	; 0x80c <__DATA_REGION_LENGTH__+0xc>
     808:	81 e0       	ldi	r24, 0x01	; 1
     80a:	04 c0       	rjmp	.+8      	; 0x814 <__DATA_REGION_LENGTH__+0x14>
     80c:	9c 30       	cpi	r25, 0x0C	; 12
     80e:	09 f0       	breq	.+2      	; 0x812 <__DATA_REGION_LENGTH__+0x12>
     810:	9c 50       	subi	r25, 0x0C	; 12
     812:	80 e0       	ldi	r24, 0x00	; 0
     814:	9d 87       	std	Y+13, r25	; 0x0d
     816:	88 8b       	std	Y+16, r24	; 0x10
     818:	88 e0       	ldi	r24, 0x08	; 8
     81a:	fe 01       	movw	r30, r28
     81c:	39 96       	adiw	r30, 0x09	; 9
     81e:	de 01       	movw	r26, r28
     820:	11 96       	adiw	r26, 0x01	; 1
     822:	01 90       	ld	r0, Z+
     824:	0d 92       	st	X+, r0
     826:	8a 95       	dec	r24
     828:	e1 f7       	brne	.-8      	; 0x822 <__DATA_REGION_LENGTH__+0x22>
     82a:	29 81       	ldd	r18, Y+1	; 0x01
     82c:	3a 81       	ldd	r19, Y+2	; 0x02
     82e:	4b 81       	ldd	r20, Y+3	; 0x03
     830:	5c 81       	ldd	r21, Y+4	; 0x04
     832:	6d 81       	ldd	r22, Y+5	; 0x05
     834:	7e 81       	ldd	r23, Y+6	; 0x06
     836:	8f 81       	ldd	r24, Y+7	; 0x07
     838:	98 85       	ldd	r25, Y+8	; 0x08
     83a:	60 96       	adiw	r28, 0x10	; 16
     83c:	0f b6       	in	r0, 0x3f	; 63
     83e:	f8 94       	cli
     840:	de bf       	out	0x3e, r29	; 62
     842:	0f be       	out	0x3f, r0	; 63
     844:	cd bf       	out	0x3d, r28	; 61
     846:	df 91       	pop	r29
     848:	cf 91       	pop	r28
     84a:	08 95       	ret

0000084c <print_dt_twelve>:
     84c:	cf 92       	push	r12
     84e:	df 92       	push	r13
     850:	ef 92       	push	r14
     852:	ff 92       	push	r15
     854:	0f 93       	push	r16
     856:	1f 93       	push	r17
     858:	cf 93       	push	r28
     85a:	df 93       	push	r29
     85c:	cd b7       	in	r28, 0x3d	; 61
     85e:	de b7       	in	r29, 0x3e	; 62
     860:	61 97       	sbiw	r28, 0x11	; 17
     862:	0f b6       	in	r0, 0x3f	; 63
     864:	f8 94       	cli
     866:	de bf       	out	0x3e, r29	; 62
     868:	0f be       	out	0x3f, r0	; 63
     86a:	cd bf       	out	0x3d, r28	; 61
     86c:	8c 01       	movw	r16, r24
     86e:	60 e0       	ldi	r22, 0x00	; 0
     870:	80 e0       	ldi	r24, 0x00	; 0
     872:	0e 94 8f 03 	call	0x71e	; 0x71e <lcd_pos>
     876:	f8 01       	movw	r30, r16
     878:	83 81       	ldd	r24, Z+3	; 0x03
     87a:	1f 92       	push	r1
     87c:	8f 93       	push	r24
     87e:	82 81       	ldd	r24, Z+2	; 0x02
     880:	1f 92       	push	r1
     882:	8f 93       	push	r24
     884:	81 81       	ldd	r24, Z+1	; 0x01
     886:	8f 93       	push	r24
     888:	80 81       	ld	r24, Z
     88a:	8f 93       	push	r24
     88c:	84 ea       	ldi	r24, 0xA4	; 164
     88e:	90 e0       	ldi	r25, 0x00	; 0
     890:	9f 93       	push	r25
     892:	8f 93       	push	r24
     894:	ce 01       	movw	r24, r28
     896:	01 96       	adiw	r24, 0x01	; 1
     898:	7c 01       	movw	r14, r24
     89a:	9f 93       	push	r25
     89c:	8f 93       	push	r24
     89e:	0e 94 f0 05 	call	0xbe0	; 0xbe0 <sprintf>
     8a2:	c7 01       	movw	r24, r14
     8a4:	0e 94 a6 03 	call	0x74c	; 0x74c <lcd_puts2>
     8a8:	0f b6       	in	r0, 0x3f	; 63
     8aa:	f8 94       	cli
     8ac:	de bf       	out	0x3e, r29	; 62
     8ae:	0f be       	out	0x3f, r0	; 63
     8b0:	cd bf       	out	0x3d, r28	; 61
     8b2:	f8 01       	movw	r30, r16
     8b4:	87 81       	ldd	r24, Z+7	; 0x07
     8b6:	81 11       	cpse	r24, r1
     8b8:	05 c0       	rjmp	.+10     	; 0x8c4 <__stack+0x65>
     8ba:	91 ea       	ldi	r25, 0xA1	; 161
     8bc:	c9 2e       	mov	r12, r25
     8be:	90 e0       	ldi	r25, 0x00	; 0
     8c0:	d9 2e       	mov	r13, r25
     8c2:	04 c0       	rjmp	.+8      	; 0x8cc <__stack+0x6d>
     8c4:	8e e9       	ldi	r24, 0x9E	; 158
     8c6:	c8 2e       	mov	r12, r24
     8c8:	80 e0       	ldi	r24, 0x00	; 0
     8ca:	d8 2e       	mov	r13, r24
     8cc:	60 e0       	ldi	r22, 0x00	; 0
     8ce:	81 e0       	ldi	r24, 0x01	; 1
     8d0:	0e 94 8f 03 	call	0x71e	; 0x71e <lcd_pos>
     8d4:	df 92       	push	r13
     8d6:	cf 92       	push	r12
     8d8:	f8 01       	movw	r30, r16
     8da:	86 81       	ldd	r24, Z+6	; 0x06
     8dc:	1f 92       	push	r1
     8de:	8f 93       	push	r24
     8e0:	85 81       	ldd	r24, Z+5	; 0x05
     8e2:	1f 92       	push	r1
     8e4:	8f 93       	push	r24
     8e6:	84 81       	ldd	r24, Z+4	; 0x04
     8e8:	1f 92       	push	r1
     8ea:	8f 93       	push	r24
     8ec:	83 eb       	ldi	r24, 0xB3	; 179
     8ee:	90 e0       	ldi	r25, 0x00	; 0
     8f0:	9f 93       	push	r25
     8f2:	8f 93       	push	r24
     8f4:	ff 92       	push	r15
     8f6:	ef 92       	push	r14
     8f8:	0e 94 f0 05 	call	0xbe0	; 0xbe0 <sprintf>
     8fc:	c7 01       	movw	r24, r14
     8fe:	0e 94 a6 03 	call	0x74c	; 0x74c <lcd_puts2>
     902:	0f b6       	in	r0, 0x3f	; 63
     904:	f8 94       	cli
     906:	de bf       	out	0x3e, r29	; 62
     908:	0f be       	out	0x3f, r0	; 63
     90a:	cd bf       	out	0x3d, r28	; 61
     90c:	61 96       	adiw	r28, 0x11	; 17
     90e:	0f b6       	in	r0, 0x3f	; 63
     910:	f8 94       	cli
     912:	de bf       	out	0x3e, r29	; 62
     914:	0f be       	out	0x3f, r0	; 63
     916:	cd bf       	out	0x3d, r28	; 61
     918:	df 91       	pop	r29
     91a:	cf 91       	pop	r28
     91c:	1f 91       	pop	r17
     91e:	0f 91       	pop	r16
     920:	ff 90       	pop	r15
     922:	ef 90       	pop	r14
     924:	df 90       	pop	r13
     926:	cf 90       	pop	r12
     928:	08 95       	ret

0000092a <init_dt_full>:
     92a:	cf 92       	push	r12
     92c:	ef 92       	push	r14
     92e:	0f 93       	push	r16
     930:	fc 01       	movw	r30, r24
     932:	71 83       	std	Z+1, r23	; 0x01
     934:	60 83       	st	Z, r22
     936:	42 83       	std	Z+2, r20	; 0x02
     938:	23 83       	std	Z+3, r18	; 0x03
     93a:	04 83       	std	Z+4, r16	; 0x04
     93c:	e5 82       	std	Z+5, r14	; 0x05
     93e:	c6 82       	std	Z+6, r12	; 0x06
     940:	0f 91       	pop	r16
     942:	ef 90       	pop	r14
     944:	cf 90       	pop	r12
     946:	08 95       	ret

00000948 <init_dt_twelve_full>:
     948:	af 92       	push	r10
     94a:	cf 92       	push	r12
     94c:	ef 92       	push	r14
     94e:	0f 93       	push	r16
     950:	fc 01       	movw	r30, r24
     952:	71 83       	std	Z+1, r23	; 0x01
     954:	60 83       	st	Z, r22
     956:	42 83       	std	Z+2, r20	; 0x02
     958:	23 83       	std	Z+3, r18	; 0x03
     95a:	04 83       	std	Z+4, r16	; 0x04
     95c:	e5 82       	std	Z+5, r14	; 0x05
     95e:	c6 82       	std	Z+6, r12	; 0x06
     960:	a7 82       	std	Z+7, r10	; 0x07
     962:	0f 91       	pop	r16
     964:	ef 90       	pop	r14
     966:	cf 90       	pop	r12
     968:	af 90       	pop	r10
     96a:	08 95       	ret

0000096c <is_leap_yr>:
     96c:	9c 01       	movw	r18, r24
     96e:	60 e9       	ldi	r22, 0x90	; 144
     970:	71 e0       	ldi	r23, 0x01	; 1
     972:	0e 94 dc 05 	call	0xbb8	; 0xbb8 <__udivmodhi4>
     976:	89 2b       	or	r24, r25
     978:	69 f0       	breq	.+26     	; 0x994 <is_leap_yr+0x28>
     97a:	c9 01       	movw	r24, r18
     97c:	64 e6       	ldi	r22, 0x64	; 100
     97e:	70 e0       	ldi	r23, 0x00	; 0
     980:	0e 94 dc 05 	call	0xbb8	; 0xbb8 <__udivmodhi4>
     984:	89 2b       	or	r24, r25
     986:	41 f0       	breq	.+16     	; 0x998 <is_leap_yr+0x2c>
     988:	23 70       	andi	r18, 0x03	; 3
     98a:	33 27       	eor	r19, r19
     98c:	81 e0       	ldi	r24, 0x01	; 1
     98e:	23 2b       	or	r18, r19
     990:	21 f0       	breq	.+8      	; 0x99a <is_leap_yr+0x2e>
     992:	02 c0       	rjmp	.+4      	; 0x998 <is_leap_yr+0x2c>
     994:	81 e0       	ldi	r24, 0x01	; 1
     996:	08 95       	ret
     998:	80 e0       	ldi	r24, 0x00	; 0
     99a:	08 95       	ret

0000099c <char_in_array>:
     99c:	fb 01       	movw	r30, r22
     99e:	9f 01       	movw	r18, r30
     9a0:	26 1b       	sub	r18, r22
     9a2:	37 0b       	sbc	r19, r23
     9a4:	24 17       	cp	r18, r20
     9a6:	35 07       	cpc	r19, r21
     9a8:	2c f4       	brge	.+10     	; 0x9b4 <char_in_array+0x18>
     9aa:	91 91       	ld	r25, Z+
     9ac:	98 13       	cpse	r25, r24
     9ae:	f7 cf       	rjmp	.-18     	; 0x99e <char_in_array+0x2>
     9b0:	81 e0       	ldi	r24, 0x01	; 1
     9b2:	08 95       	ret
     9b4:	80 e0       	ldi	r24, 0x00	; 0
     9b6:	08 95       	ret

000009b8 <get_max_days_in_month>:
     9b8:	0f 93       	push	r16
     9ba:	1f 93       	push	r17
     9bc:	cf 93       	push	r28
     9be:	c8 2f       	mov	r28, r24
     9c0:	8b 01       	movw	r16, r22
     9c2:	44 e0       	ldi	r20, 0x04	; 4
     9c4:	50 e0       	ldi	r21, 0x00	; 0
     9c6:	6c ec       	ldi	r22, 0xCC	; 204
     9c8:	70 e0       	ldi	r23, 0x00	; 0
     9ca:	0e 94 ce 04 	call	0x99c	; 0x99c <char_in_array>
     9ce:	81 11       	cpse	r24, r1
     9d0:	12 c0       	rjmp	.+36     	; 0x9f6 <get_max_days_in_month+0x3e>
     9d2:	47 e0       	ldi	r20, 0x07	; 7
     9d4:	50 e0       	ldi	r21, 0x00	; 0
     9d6:	65 ec       	ldi	r22, 0xC5	; 197
     9d8:	70 e0       	ldi	r23, 0x00	; 0
     9da:	8c 2f       	mov	r24, r28
     9dc:	0e 94 ce 04 	call	0x99c	; 0x99c <char_in_array>
     9e0:	81 11       	cpse	r24, r1
     9e2:	0b c0       	rjmp	.+22     	; 0x9fa <get_max_days_in_month+0x42>
     9e4:	c2 30       	cpi	r28, 0x02	; 2
     9e6:	59 f4       	brne	.+22     	; 0x9fe <get_max_days_in_month+0x46>
     9e8:	c8 01       	movw	r24, r16
     9ea:	0e 94 b6 04 	call	0x96c	; 0x96c <is_leap_yr>
     9ee:	81 11       	cpse	r24, r1
     9f0:	08 c0       	rjmp	.+16     	; 0xa02 <get_max_days_in_month+0x4a>
     9f2:	8c e1       	ldi	r24, 0x1C	; 28
     9f4:	07 c0       	rjmp	.+14     	; 0xa04 <get_max_days_in_month+0x4c>
     9f6:	8e e1       	ldi	r24, 0x1E	; 30
     9f8:	05 c0       	rjmp	.+10     	; 0xa04 <get_max_days_in_month+0x4c>
     9fa:	8f e1       	ldi	r24, 0x1F	; 31
     9fc:	03 c0       	rjmp	.+6      	; 0xa04 <get_max_days_in_month+0x4c>
     9fe:	80 e0       	ldi	r24, 0x00	; 0
     a00:	01 c0       	rjmp	.+2      	; 0xa04 <get_max_days_in_month+0x4c>
     a02:	8d e1       	ldi	r24, 0x1D	; 29
     a04:	cf 91       	pop	r28
     a06:	1f 91       	pop	r17
     a08:	0f 91       	pop	r16
     a0a:	08 95       	ret

00000a0c <advance_dt>:
     a0c:	ef 92       	push	r14
     a0e:	ff 92       	push	r15
     a10:	0f 93       	push	r16
     a12:	1f 93       	push	r17
     a14:	cf 93       	push	r28
     a16:	df 93       	push	r29
     a18:	ec 01       	movw	r28, r24
     a1a:	8e 81       	ldd	r24, Y+6	; 0x06
     a1c:	8f 5f       	subi	r24, 0xFF	; 255
     a1e:	8e 83       	std	Y+6, r24	; 0x06
     a20:	8c 33       	cpi	r24, 0x3C	; 60
     a22:	31 f5       	brne	.+76     	; 0xa70 <advance_dt+0x64>
     a24:	8d 81       	ldd	r24, Y+5	; 0x05
     a26:	8f 5f       	subi	r24, 0xFF	; 255
     a28:	8d 83       	std	Y+5, r24	; 0x05
     a2a:	1e 82       	std	Y+6, r1	; 0x06
     a2c:	8c 33       	cpi	r24, 0x3C	; 60
     a2e:	01 f5       	brne	.+64     	; 0xa70 <advance_dt+0x64>
     a30:	8c 81       	ldd	r24, Y+4	; 0x04
     a32:	8f 5f       	subi	r24, 0xFF	; 255
     a34:	8c 83       	std	Y+4, r24	; 0x04
     a36:	1d 82       	std	Y+5, r1	; 0x05
     a38:	88 31       	cpi	r24, 0x18	; 24
     a3a:	d1 f4       	brne	.+52     	; 0xa70 <advance_dt+0x64>
     a3c:	0b 81       	ldd	r16, Y+3	; 0x03
     a3e:	0f 5f       	subi	r16, 0xFF	; 255
     a40:	0b 83       	std	Y+3, r16	; 0x03
     a42:	1c 82       	std	Y+4, r1	; 0x04
     a44:	e8 80       	ld	r14, Y
     a46:	f9 80       	ldd	r15, Y+1	; 0x01
     a48:	1a 81       	ldd	r17, Y+2	; 0x02
     a4a:	b7 01       	movw	r22, r14
     a4c:	81 2f       	mov	r24, r17
     a4e:	0e 94 dc 04 	call	0x9b8	; 0x9b8 <get_max_days_in_month>
     a52:	80 17       	cp	r24, r16
     a54:	68 f4       	brcc	.+26     	; 0xa70 <advance_dt+0x64>
     a56:	81 e0       	ldi	r24, 0x01	; 1
     a58:	8b 83       	std	Y+3, r24	; 0x03
     a5a:	1c 30       	cpi	r17, 0x0C	; 12
     a5c:	19 f0       	breq	.+6      	; 0xa64 <advance_dt+0x58>
     a5e:	1f 5f       	subi	r17, 0xFF	; 255
     a60:	1a 83       	std	Y+2, r17	; 0x02
     a62:	06 c0       	rjmp	.+12     	; 0xa70 <advance_dt+0x64>
     a64:	8a 83       	std	Y+2, r24	; 0x02
     a66:	8f ef       	ldi	r24, 0xFF	; 255
     a68:	e8 1a       	sub	r14, r24
     a6a:	f8 0a       	sbc	r15, r24
     a6c:	f9 82       	std	Y+1, r15	; 0x01
     a6e:	e8 82       	st	Y, r14
     a70:	df 91       	pop	r29
     a72:	cf 91       	pop	r28
     a74:	1f 91       	pop	r17
     a76:	0f 91       	pop	r16
     a78:	ff 90       	pop	r15
     a7a:	ef 90       	pop	r14
     a7c:	08 95       	ret

00000a7e <advance_dt_twelve>:
     a7e:	df 92       	push	r13
     a80:	ef 92       	push	r14
     a82:	ff 92       	push	r15
     a84:	0f 93       	push	r16
     a86:	1f 93       	push	r17
     a88:	cf 93       	push	r28
     a8a:	df 93       	push	r29
     a8c:	fc 01       	movw	r30, r24
     a8e:	86 81       	ldd	r24, Z+6	; 0x06
     a90:	8f 5f       	subi	r24, 0xFF	; 255
     a92:	86 83       	std	Z+6, r24	; 0x06
     a94:	8c 33       	cpi	r24, 0x3C	; 60
     a96:	69 f5       	brne	.+90     	; 0xaf2 <advance_dt_twelve+0x74>
     a98:	85 81       	ldd	r24, Z+5	; 0x05
     a9a:	8f 5f       	subi	r24, 0xFF	; 255
     a9c:	85 83       	std	Z+5, r24	; 0x05
     a9e:	16 82       	std	Z+6, r1	; 0x06
     aa0:	8c 33       	cpi	r24, 0x3C	; 60
     aa2:	39 f5       	brne	.+78     	; 0xaf2 <advance_dt_twelve+0x74>
     aa4:	84 81       	ldd	r24, Z+4	; 0x04
     aa6:	8f 5f       	subi	r24, 0xFF	; 255
     aa8:	84 83       	std	Z+4, r24	; 0x04
     aaa:	15 82       	std	Z+5, r1	; 0x05
     aac:	8c 30       	cpi	r24, 0x0C	; 12
     aae:	09 f5       	brne	.+66     	; 0xaf2 <advance_dt_twelve+0x74>
     ab0:	87 81       	ldd	r24, Z+7	; 0x07
     ab2:	88 23       	and	r24, r24
     ab4:	11 f0       	breq	.+4      	; 0xaba <advance_dt_twelve+0x3c>
     ab6:	17 82       	std	Z+7, r1	; 0x07
     ab8:	1c c0       	rjmp	.+56     	; 0xaf2 <advance_dt_twelve+0x74>
     aba:	ef 01       	movw	r28, r30
     abc:	dd 24       	eor	r13, r13
     abe:	d3 94       	inc	r13
     ac0:	d7 82       	std	Z+7, r13	; 0x07
     ac2:	03 81       	ldd	r16, Z+3	; 0x03
     ac4:	0f 5f       	subi	r16, 0xFF	; 255
     ac6:	03 83       	std	Z+3, r16	; 0x03
     ac8:	e0 80       	ld	r14, Z
     aca:	f1 80       	ldd	r15, Z+1	; 0x01
     acc:	12 81       	ldd	r17, Z+2	; 0x02
     ace:	b7 01       	movw	r22, r14
     ad0:	81 2f       	mov	r24, r17
     ad2:	0e 94 dc 04 	call	0x9b8	; 0x9b8 <get_max_days_in_month>
     ad6:	80 17       	cp	r24, r16
     ad8:	60 f4       	brcc	.+24     	; 0xaf2 <advance_dt_twelve+0x74>
     ada:	db 82       	std	Y+3, r13	; 0x03
     adc:	1c 30       	cpi	r17, 0x0C	; 12
     ade:	19 f0       	breq	.+6      	; 0xae6 <advance_dt_twelve+0x68>
     ae0:	1f 5f       	subi	r17, 0xFF	; 255
     ae2:	1a 83       	std	Y+2, r17	; 0x02
     ae4:	06 c0       	rjmp	.+12     	; 0xaf2 <advance_dt_twelve+0x74>
     ae6:	da 82       	std	Y+2, r13	; 0x02
     ae8:	8f ef       	ldi	r24, 0xFF	; 255
     aea:	e8 1a       	sub	r14, r24
     aec:	f8 0a       	sbc	r15, r24
     aee:	f9 82       	std	Y+1, r15	; 0x01
     af0:	e8 82       	st	Y, r14
     af2:	df 91       	pop	r29
     af4:	cf 91       	pop	r28
     af6:	1f 91       	pop	r17
     af8:	0f 91       	pop	r16
     afa:	ff 90       	pop	r15
     afc:	ef 90       	pop	r14
     afe:	df 90       	pop	r13
     b00:	08 95       	ret

00000b02 <print_dt>:
     b02:	cf 92       	push	r12
     b04:	df 92       	push	r13
     b06:	ef 92       	push	r14
     b08:	ff 92       	push	r15
     b0a:	0f 93       	push	r16
     b0c:	1f 93       	push	r17
     b0e:	cf 93       	push	r28
     b10:	df 93       	push	r29
     b12:	cd b7       	in	r28, 0x3d	; 61
     b14:	de b7       	in	r29, 0x3e	; 62
     b16:	61 97       	sbiw	r28, 0x11	; 17
     b18:	0f b6       	in	r0, 0x3f	; 63
     b1a:	f8 94       	cli
     b1c:	de bf       	out	0x3e, r29	; 62
     b1e:	0f be       	out	0x3f, r0	; 63
     b20:	cd bf       	out	0x3d, r28	; 61
     b22:	8c 01       	movw	r16, r24
     b24:	60 e0       	ldi	r22, 0x00	; 0
     b26:	80 e0       	ldi	r24, 0x00	; 0
     b28:	0e 94 8f 03 	call	0x71e	; 0x71e <lcd_pos>
     b2c:	f8 01       	movw	r30, r16
     b2e:	83 81       	ldd	r24, Z+3	; 0x03
     b30:	1f 92       	push	r1
     b32:	8f 93       	push	r24
     b34:	82 81       	ldd	r24, Z+2	; 0x02
     b36:	1f 92       	push	r1
     b38:	8f 93       	push	r24
     b3a:	81 81       	ldd	r24, Z+1	; 0x01
     b3c:	8f 93       	push	r24
     b3e:	80 81       	ld	r24, Z
     b40:	8f 93       	push	r24
     b42:	84 ea       	ldi	r24, 0xA4	; 164
     b44:	c8 2e       	mov	r12, r24
     b46:	80 e0       	ldi	r24, 0x00	; 0
     b48:	d8 2e       	mov	r13, r24
     b4a:	df 92       	push	r13
     b4c:	cf 92       	push	r12
     b4e:	ce 01       	movw	r24, r28
     b50:	01 96       	adiw	r24, 0x01	; 1
     b52:	7c 01       	movw	r14, r24
     b54:	9f 93       	push	r25
     b56:	8f 93       	push	r24
     b58:	0e 94 f0 05 	call	0xbe0	; 0xbe0 <sprintf>
     b5c:	c7 01       	movw	r24, r14
     b5e:	0e 94 a6 03 	call	0x74c	; 0x74c <lcd_puts2>
     b62:	60 e0       	ldi	r22, 0x00	; 0
     b64:	81 e0       	ldi	r24, 0x01	; 1
     b66:	0e 94 8f 03 	call	0x71e	; 0x71e <lcd_pos>
     b6a:	f8 01       	movw	r30, r16
     b6c:	86 81       	ldd	r24, Z+6	; 0x06
     b6e:	1f 92       	push	r1
     b70:	8f 93       	push	r24
     b72:	85 81       	ldd	r24, Z+5	; 0x05
     b74:	1f 92       	push	r1
     b76:	8f 93       	push	r24
     b78:	84 81       	ldd	r24, Z+4	; 0x04
     b7a:	1f 92       	push	r1
     b7c:	8f 93       	push	r24
     b7e:	df 92       	push	r13
     b80:	cf 92       	push	r12
     b82:	ff 92       	push	r15
     b84:	ef 92       	push	r14
     b86:	0e 94 f0 05 	call	0xbe0	; 0xbe0 <sprintf>
     b8a:	c7 01       	movw	r24, r14
     b8c:	0e 94 a6 03 	call	0x74c	; 0x74c <lcd_puts2>
     b90:	0f b6       	in	r0, 0x3f	; 63
     b92:	f8 94       	cli
     b94:	de bf       	out	0x3e, r29	; 62
     b96:	0f be       	out	0x3f, r0	; 63
     b98:	cd bf       	out	0x3d, r28	; 61
     b9a:	61 96       	adiw	r28, 0x11	; 17
     b9c:	0f b6       	in	r0, 0x3f	; 63
     b9e:	f8 94       	cli
     ba0:	de bf       	out	0x3e, r29	; 62
     ba2:	0f be       	out	0x3f, r0	; 63
     ba4:	cd bf       	out	0x3d, r28	; 61
     ba6:	df 91       	pop	r29
     ba8:	cf 91       	pop	r28
     baa:	1f 91       	pop	r17
     bac:	0f 91       	pop	r16
     bae:	ff 90       	pop	r15
     bb0:	ef 90       	pop	r14
     bb2:	df 90       	pop	r13
     bb4:	cf 90       	pop	r12
     bb6:	08 95       	ret

00000bb8 <__udivmodhi4>:
     bb8:	aa 1b       	sub	r26, r26
     bba:	bb 1b       	sub	r27, r27
     bbc:	51 e1       	ldi	r21, 0x11	; 17
     bbe:	07 c0       	rjmp	.+14     	; 0xbce <__udivmodhi4_ep>

00000bc0 <__udivmodhi4_loop>:
     bc0:	aa 1f       	adc	r26, r26
     bc2:	bb 1f       	adc	r27, r27
     bc4:	a6 17       	cp	r26, r22
     bc6:	b7 07       	cpc	r27, r23
     bc8:	10 f0       	brcs	.+4      	; 0xbce <__udivmodhi4_ep>
     bca:	a6 1b       	sub	r26, r22
     bcc:	b7 0b       	sbc	r27, r23

00000bce <__udivmodhi4_ep>:
     bce:	88 1f       	adc	r24, r24
     bd0:	99 1f       	adc	r25, r25
     bd2:	5a 95       	dec	r21
     bd4:	a9 f7       	brne	.-22     	; 0xbc0 <__udivmodhi4_loop>
     bd6:	80 95       	com	r24
     bd8:	90 95       	com	r25
     bda:	bc 01       	movw	r22, r24
     bdc:	cd 01       	movw	r24, r26
     bde:	08 95       	ret

00000be0 <sprintf>:
     be0:	ae e0       	ldi	r26, 0x0E	; 14
     be2:	b0 e0       	ldi	r27, 0x00	; 0
     be4:	e6 ef       	ldi	r30, 0xF6	; 246
     be6:	f5 e0       	ldi	r31, 0x05	; 5
     be8:	0c 94 b1 08 	jmp	0x1162	; 0x1162 <__prologue_saves__+0x1c>
     bec:	0d 89       	ldd	r16, Y+21	; 0x15
     bee:	1e 89       	ldd	r17, Y+22	; 0x16
     bf0:	86 e0       	ldi	r24, 0x06	; 6
     bf2:	8c 83       	std	Y+4, r24	; 0x04
     bf4:	1a 83       	std	Y+2, r17	; 0x02
     bf6:	09 83       	std	Y+1, r16	; 0x01
     bf8:	8f ef       	ldi	r24, 0xFF	; 255
     bfa:	9f e7       	ldi	r25, 0x7F	; 127
     bfc:	9e 83       	std	Y+6, r25	; 0x06
     bfe:	8d 83       	std	Y+5, r24	; 0x05
     c00:	ae 01       	movw	r20, r28
     c02:	47 5e       	subi	r20, 0xE7	; 231
     c04:	5f 4f       	sbci	r21, 0xFF	; 255
     c06:	6f 89       	ldd	r22, Y+23	; 0x17
     c08:	78 8d       	ldd	r23, Y+24	; 0x18
     c0a:	ce 01       	movw	r24, r28
     c0c:	01 96       	adiw	r24, 0x01	; 1
     c0e:	0e 94 12 06 	call	0xc24	; 0xc24 <vfprintf>
     c12:	ef 81       	ldd	r30, Y+7	; 0x07
     c14:	f8 85       	ldd	r31, Y+8	; 0x08
     c16:	e0 0f       	add	r30, r16
     c18:	f1 1f       	adc	r31, r17
     c1a:	10 82       	st	Z, r1
     c1c:	2e 96       	adiw	r28, 0x0e	; 14
     c1e:	e4 e0       	ldi	r30, 0x04	; 4
     c20:	0c 94 cd 08 	jmp	0x119a	; 0x119a <__epilogue_restores__+0x1c>

00000c24 <vfprintf>:
     c24:	ab e0       	ldi	r26, 0x0B	; 11
     c26:	b0 e0       	ldi	r27, 0x00	; 0
     c28:	e8 e1       	ldi	r30, 0x18	; 24
     c2a:	f6 e0       	ldi	r31, 0x06	; 6
     c2c:	0c 94 a3 08 	jmp	0x1146	; 0x1146 <__prologue_saves__>
     c30:	6c 01       	movw	r12, r24
     c32:	7b 01       	movw	r14, r22
     c34:	8a 01       	movw	r16, r20
     c36:	fc 01       	movw	r30, r24
     c38:	17 82       	std	Z+7, r1	; 0x07
     c3a:	16 82       	std	Z+6, r1	; 0x06
     c3c:	83 81       	ldd	r24, Z+3	; 0x03
     c3e:	81 ff       	sbrs	r24, 1
     c40:	cc c1       	rjmp	.+920    	; 0xfda <vfprintf+0x3b6>
     c42:	ce 01       	movw	r24, r28
     c44:	01 96       	adiw	r24, 0x01	; 1
     c46:	3c 01       	movw	r6, r24
     c48:	f6 01       	movw	r30, r12
     c4a:	93 81       	ldd	r25, Z+3	; 0x03
     c4c:	f7 01       	movw	r30, r14
     c4e:	93 fd       	sbrc	r25, 3
     c50:	85 91       	lpm	r24, Z+
     c52:	93 ff       	sbrs	r25, 3
     c54:	81 91       	ld	r24, Z+
     c56:	7f 01       	movw	r14, r30
     c58:	88 23       	and	r24, r24
     c5a:	09 f4       	brne	.+2      	; 0xc5e <vfprintf+0x3a>
     c5c:	ba c1       	rjmp	.+884    	; 0xfd2 <vfprintf+0x3ae>
     c5e:	85 32       	cpi	r24, 0x25	; 37
     c60:	39 f4       	brne	.+14     	; 0xc70 <vfprintf+0x4c>
     c62:	93 fd       	sbrc	r25, 3
     c64:	85 91       	lpm	r24, Z+
     c66:	93 ff       	sbrs	r25, 3
     c68:	81 91       	ld	r24, Z+
     c6a:	7f 01       	movw	r14, r30
     c6c:	85 32       	cpi	r24, 0x25	; 37
     c6e:	29 f4       	brne	.+10     	; 0xc7a <vfprintf+0x56>
     c70:	b6 01       	movw	r22, r12
     c72:	90 e0       	ldi	r25, 0x00	; 0
     c74:	0e 94 09 08 	call	0x1012	; 0x1012 <fputc>
     c78:	e7 cf       	rjmp	.-50     	; 0xc48 <vfprintf+0x24>
     c7a:	91 2c       	mov	r9, r1
     c7c:	21 2c       	mov	r2, r1
     c7e:	31 2c       	mov	r3, r1
     c80:	ff e1       	ldi	r31, 0x1F	; 31
     c82:	f3 15       	cp	r31, r3
     c84:	d8 f0       	brcs	.+54     	; 0xcbc <vfprintf+0x98>
     c86:	8b 32       	cpi	r24, 0x2B	; 43
     c88:	79 f0       	breq	.+30     	; 0xca8 <vfprintf+0x84>
     c8a:	38 f4       	brcc	.+14     	; 0xc9a <vfprintf+0x76>
     c8c:	80 32       	cpi	r24, 0x20	; 32
     c8e:	79 f0       	breq	.+30     	; 0xcae <vfprintf+0x8a>
     c90:	83 32       	cpi	r24, 0x23	; 35
     c92:	a1 f4       	brne	.+40     	; 0xcbc <vfprintf+0x98>
     c94:	23 2d       	mov	r18, r3
     c96:	20 61       	ori	r18, 0x10	; 16
     c98:	1d c0       	rjmp	.+58     	; 0xcd4 <vfprintf+0xb0>
     c9a:	8d 32       	cpi	r24, 0x2D	; 45
     c9c:	61 f0       	breq	.+24     	; 0xcb6 <vfprintf+0x92>
     c9e:	80 33       	cpi	r24, 0x30	; 48
     ca0:	69 f4       	brne	.+26     	; 0xcbc <vfprintf+0x98>
     ca2:	23 2d       	mov	r18, r3
     ca4:	21 60       	ori	r18, 0x01	; 1
     ca6:	16 c0       	rjmp	.+44     	; 0xcd4 <vfprintf+0xb0>
     ca8:	83 2d       	mov	r24, r3
     caa:	82 60       	ori	r24, 0x02	; 2
     cac:	38 2e       	mov	r3, r24
     cae:	e3 2d       	mov	r30, r3
     cb0:	e4 60       	ori	r30, 0x04	; 4
     cb2:	3e 2e       	mov	r3, r30
     cb4:	2a c0       	rjmp	.+84     	; 0xd0a <vfprintf+0xe6>
     cb6:	f3 2d       	mov	r31, r3
     cb8:	f8 60       	ori	r31, 0x08	; 8
     cba:	1d c0       	rjmp	.+58     	; 0xcf6 <vfprintf+0xd2>
     cbc:	37 fc       	sbrc	r3, 7
     cbe:	2d c0       	rjmp	.+90     	; 0xd1a <vfprintf+0xf6>
     cc0:	20 ed       	ldi	r18, 0xD0	; 208
     cc2:	28 0f       	add	r18, r24
     cc4:	2a 30       	cpi	r18, 0x0A	; 10
     cc6:	40 f0       	brcs	.+16     	; 0xcd8 <vfprintf+0xb4>
     cc8:	8e 32       	cpi	r24, 0x2E	; 46
     cca:	b9 f4       	brne	.+46     	; 0xcfa <vfprintf+0xd6>
     ccc:	36 fc       	sbrc	r3, 6
     cce:	81 c1       	rjmp	.+770    	; 0xfd2 <vfprintf+0x3ae>
     cd0:	23 2d       	mov	r18, r3
     cd2:	20 64       	ori	r18, 0x40	; 64
     cd4:	32 2e       	mov	r3, r18
     cd6:	19 c0       	rjmp	.+50     	; 0xd0a <vfprintf+0xe6>
     cd8:	36 fe       	sbrs	r3, 6
     cda:	06 c0       	rjmp	.+12     	; 0xce8 <vfprintf+0xc4>
     cdc:	8a e0       	ldi	r24, 0x0A	; 10
     cde:	98 9e       	mul	r9, r24
     ce0:	20 0d       	add	r18, r0
     ce2:	11 24       	eor	r1, r1
     ce4:	92 2e       	mov	r9, r18
     ce6:	11 c0       	rjmp	.+34     	; 0xd0a <vfprintf+0xe6>
     ce8:	ea e0       	ldi	r30, 0x0A	; 10
     cea:	2e 9e       	mul	r2, r30
     cec:	20 0d       	add	r18, r0
     cee:	11 24       	eor	r1, r1
     cf0:	22 2e       	mov	r2, r18
     cf2:	f3 2d       	mov	r31, r3
     cf4:	f0 62       	ori	r31, 0x20	; 32
     cf6:	3f 2e       	mov	r3, r31
     cf8:	08 c0       	rjmp	.+16     	; 0xd0a <vfprintf+0xe6>
     cfa:	8c 36       	cpi	r24, 0x6C	; 108
     cfc:	21 f4       	brne	.+8      	; 0xd06 <vfprintf+0xe2>
     cfe:	83 2d       	mov	r24, r3
     d00:	80 68       	ori	r24, 0x80	; 128
     d02:	38 2e       	mov	r3, r24
     d04:	02 c0       	rjmp	.+4      	; 0xd0a <vfprintf+0xe6>
     d06:	88 36       	cpi	r24, 0x68	; 104
     d08:	41 f4       	brne	.+16     	; 0xd1a <vfprintf+0xf6>
     d0a:	f7 01       	movw	r30, r14
     d0c:	93 fd       	sbrc	r25, 3
     d0e:	85 91       	lpm	r24, Z+
     d10:	93 ff       	sbrs	r25, 3
     d12:	81 91       	ld	r24, Z+
     d14:	7f 01       	movw	r14, r30
     d16:	81 11       	cpse	r24, r1
     d18:	b3 cf       	rjmp	.-154    	; 0xc80 <vfprintf+0x5c>
     d1a:	98 2f       	mov	r25, r24
     d1c:	9f 7d       	andi	r25, 0xDF	; 223
     d1e:	95 54       	subi	r25, 0x45	; 69
     d20:	93 30       	cpi	r25, 0x03	; 3
     d22:	28 f4       	brcc	.+10     	; 0xd2e <vfprintf+0x10a>
     d24:	0c 5f       	subi	r16, 0xFC	; 252
     d26:	1f 4f       	sbci	r17, 0xFF	; 255
     d28:	9f e3       	ldi	r25, 0x3F	; 63
     d2a:	99 83       	std	Y+1, r25	; 0x01
     d2c:	0d c0       	rjmp	.+26     	; 0xd48 <vfprintf+0x124>
     d2e:	83 36       	cpi	r24, 0x63	; 99
     d30:	31 f0       	breq	.+12     	; 0xd3e <vfprintf+0x11a>
     d32:	83 37       	cpi	r24, 0x73	; 115
     d34:	71 f0       	breq	.+28     	; 0xd52 <vfprintf+0x12e>
     d36:	83 35       	cpi	r24, 0x53	; 83
     d38:	09 f0       	breq	.+2      	; 0xd3c <vfprintf+0x118>
     d3a:	59 c0       	rjmp	.+178    	; 0xdee <vfprintf+0x1ca>
     d3c:	21 c0       	rjmp	.+66     	; 0xd80 <vfprintf+0x15c>
     d3e:	f8 01       	movw	r30, r16
     d40:	80 81       	ld	r24, Z
     d42:	89 83       	std	Y+1, r24	; 0x01
     d44:	0e 5f       	subi	r16, 0xFE	; 254
     d46:	1f 4f       	sbci	r17, 0xFF	; 255
     d48:	88 24       	eor	r8, r8
     d4a:	83 94       	inc	r8
     d4c:	91 2c       	mov	r9, r1
     d4e:	53 01       	movw	r10, r6
     d50:	13 c0       	rjmp	.+38     	; 0xd78 <vfprintf+0x154>
     d52:	28 01       	movw	r4, r16
     d54:	f2 e0       	ldi	r31, 0x02	; 2
     d56:	4f 0e       	add	r4, r31
     d58:	51 1c       	adc	r5, r1
     d5a:	f8 01       	movw	r30, r16
     d5c:	a0 80       	ld	r10, Z
     d5e:	b1 80       	ldd	r11, Z+1	; 0x01
     d60:	36 fe       	sbrs	r3, 6
     d62:	03 c0       	rjmp	.+6      	; 0xd6a <vfprintf+0x146>
     d64:	69 2d       	mov	r22, r9
     d66:	70 e0       	ldi	r23, 0x00	; 0
     d68:	02 c0       	rjmp	.+4      	; 0xd6e <vfprintf+0x14a>
     d6a:	6f ef       	ldi	r22, 0xFF	; 255
     d6c:	7f ef       	ldi	r23, 0xFF	; 255
     d6e:	c5 01       	movw	r24, r10
     d70:	0e 94 fe 07 	call	0xffc	; 0xffc <strnlen>
     d74:	4c 01       	movw	r8, r24
     d76:	82 01       	movw	r16, r4
     d78:	f3 2d       	mov	r31, r3
     d7a:	ff 77       	andi	r31, 0x7F	; 127
     d7c:	3f 2e       	mov	r3, r31
     d7e:	16 c0       	rjmp	.+44     	; 0xdac <vfprintf+0x188>
     d80:	28 01       	movw	r4, r16
     d82:	22 e0       	ldi	r18, 0x02	; 2
     d84:	42 0e       	add	r4, r18
     d86:	51 1c       	adc	r5, r1
     d88:	f8 01       	movw	r30, r16
     d8a:	a0 80       	ld	r10, Z
     d8c:	b1 80       	ldd	r11, Z+1	; 0x01
     d8e:	36 fe       	sbrs	r3, 6
     d90:	03 c0       	rjmp	.+6      	; 0xd98 <vfprintf+0x174>
     d92:	69 2d       	mov	r22, r9
     d94:	70 e0       	ldi	r23, 0x00	; 0
     d96:	02 c0       	rjmp	.+4      	; 0xd9c <vfprintf+0x178>
     d98:	6f ef       	ldi	r22, 0xFF	; 255
     d9a:	7f ef       	ldi	r23, 0xFF	; 255
     d9c:	c5 01       	movw	r24, r10
     d9e:	0e 94 f3 07 	call	0xfe6	; 0xfe6 <strnlen_P>
     da2:	4c 01       	movw	r8, r24
     da4:	f3 2d       	mov	r31, r3
     da6:	f0 68       	ori	r31, 0x80	; 128
     da8:	3f 2e       	mov	r3, r31
     daa:	82 01       	movw	r16, r4
     dac:	33 fc       	sbrc	r3, 3
     dae:	1b c0       	rjmp	.+54     	; 0xde6 <vfprintf+0x1c2>
     db0:	82 2d       	mov	r24, r2
     db2:	90 e0       	ldi	r25, 0x00	; 0
     db4:	88 16       	cp	r8, r24
     db6:	99 06       	cpc	r9, r25
     db8:	b0 f4       	brcc	.+44     	; 0xde6 <vfprintf+0x1c2>
     dba:	b6 01       	movw	r22, r12
     dbc:	80 e2       	ldi	r24, 0x20	; 32
     dbe:	90 e0       	ldi	r25, 0x00	; 0
     dc0:	0e 94 09 08 	call	0x1012	; 0x1012 <fputc>
     dc4:	2a 94       	dec	r2
     dc6:	f4 cf       	rjmp	.-24     	; 0xdb0 <vfprintf+0x18c>
     dc8:	f5 01       	movw	r30, r10
     dca:	37 fc       	sbrc	r3, 7
     dcc:	85 91       	lpm	r24, Z+
     dce:	37 fe       	sbrs	r3, 7
     dd0:	81 91       	ld	r24, Z+
     dd2:	5f 01       	movw	r10, r30
     dd4:	b6 01       	movw	r22, r12
     dd6:	90 e0       	ldi	r25, 0x00	; 0
     dd8:	0e 94 09 08 	call	0x1012	; 0x1012 <fputc>
     ddc:	21 10       	cpse	r2, r1
     dde:	2a 94       	dec	r2
     de0:	21 e0       	ldi	r18, 0x01	; 1
     de2:	82 1a       	sub	r8, r18
     de4:	91 08       	sbc	r9, r1
     de6:	81 14       	cp	r8, r1
     de8:	91 04       	cpc	r9, r1
     dea:	71 f7       	brne	.-36     	; 0xdc8 <vfprintf+0x1a4>
     dec:	e8 c0       	rjmp	.+464    	; 0xfbe <vfprintf+0x39a>
     dee:	84 36       	cpi	r24, 0x64	; 100
     df0:	11 f0       	breq	.+4      	; 0xdf6 <vfprintf+0x1d2>
     df2:	89 36       	cpi	r24, 0x69	; 105
     df4:	41 f5       	brne	.+80     	; 0xe46 <vfprintf+0x222>
     df6:	f8 01       	movw	r30, r16
     df8:	37 fe       	sbrs	r3, 7
     dfa:	07 c0       	rjmp	.+14     	; 0xe0a <vfprintf+0x1e6>
     dfc:	60 81       	ld	r22, Z
     dfe:	71 81       	ldd	r23, Z+1	; 0x01
     e00:	82 81       	ldd	r24, Z+2	; 0x02
     e02:	93 81       	ldd	r25, Z+3	; 0x03
     e04:	0c 5f       	subi	r16, 0xFC	; 252
     e06:	1f 4f       	sbci	r17, 0xFF	; 255
     e08:	08 c0       	rjmp	.+16     	; 0xe1a <vfprintf+0x1f6>
     e0a:	60 81       	ld	r22, Z
     e0c:	71 81       	ldd	r23, Z+1	; 0x01
     e0e:	07 2e       	mov	r0, r23
     e10:	00 0c       	add	r0, r0
     e12:	88 0b       	sbc	r24, r24
     e14:	99 0b       	sbc	r25, r25
     e16:	0e 5f       	subi	r16, 0xFE	; 254
     e18:	1f 4f       	sbci	r17, 0xFF	; 255
     e1a:	f3 2d       	mov	r31, r3
     e1c:	ff 76       	andi	r31, 0x6F	; 111
     e1e:	3f 2e       	mov	r3, r31
     e20:	97 ff       	sbrs	r25, 7
     e22:	09 c0       	rjmp	.+18     	; 0xe36 <vfprintf+0x212>
     e24:	90 95       	com	r25
     e26:	80 95       	com	r24
     e28:	70 95       	com	r23
     e2a:	61 95       	neg	r22
     e2c:	7f 4f       	sbci	r23, 0xFF	; 255
     e2e:	8f 4f       	sbci	r24, 0xFF	; 255
     e30:	9f 4f       	sbci	r25, 0xFF	; 255
     e32:	f0 68       	ori	r31, 0x80	; 128
     e34:	3f 2e       	mov	r3, r31
     e36:	2a e0       	ldi	r18, 0x0A	; 10
     e38:	30 e0       	ldi	r19, 0x00	; 0
     e3a:	a3 01       	movw	r20, r6
     e3c:	0e 94 45 08 	call	0x108a	; 0x108a <__ultoa_invert>
     e40:	88 2e       	mov	r8, r24
     e42:	86 18       	sub	r8, r6
     e44:	45 c0       	rjmp	.+138    	; 0xed0 <vfprintf+0x2ac>
     e46:	85 37       	cpi	r24, 0x75	; 117
     e48:	31 f4       	brne	.+12     	; 0xe56 <vfprintf+0x232>
     e4a:	23 2d       	mov	r18, r3
     e4c:	2f 7e       	andi	r18, 0xEF	; 239
     e4e:	b2 2e       	mov	r11, r18
     e50:	2a e0       	ldi	r18, 0x0A	; 10
     e52:	30 e0       	ldi	r19, 0x00	; 0
     e54:	25 c0       	rjmp	.+74     	; 0xea0 <vfprintf+0x27c>
     e56:	93 2d       	mov	r25, r3
     e58:	99 7f       	andi	r25, 0xF9	; 249
     e5a:	b9 2e       	mov	r11, r25
     e5c:	8f 36       	cpi	r24, 0x6F	; 111
     e5e:	c1 f0       	breq	.+48     	; 0xe90 <vfprintf+0x26c>
     e60:	18 f4       	brcc	.+6      	; 0xe68 <vfprintf+0x244>
     e62:	88 35       	cpi	r24, 0x58	; 88
     e64:	79 f0       	breq	.+30     	; 0xe84 <vfprintf+0x260>
     e66:	b5 c0       	rjmp	.+362    	; 0xfd2 <vfprintf+0x3ae>
     e68:	80 37       	cpi	r24, 0x70	; 112
     e6a:	19 f0       	breq	.+6      	; 0xe72 <vfprintf+0x24e>
     e6c:	88 37       	cpi	r24, 0x78	; 120
     e6e:	21 f0       	breq	.+8      	; 0xe78 <vfprintf+0x254>
     e70:	b0 c0       	rjmp	.+352    	; 0xfd2 <vfprintf+0x3ae>
     e72:	e9 2f       	mov	r30, r25
     e74:	e0 61       	ori	r30, 0x10	; 16
     e76:	be 2e       	mov	r11, r30
     e78:	b4 fe       	sbrs	r11, 4
     e7a:	0d c0       	rjmp	.+26     	; 0xe96 <vfprintf+0x272>
     e7c:	fb 2d       	mov	r31, r11
     e7e:	f4 60       	ori	r31, 0x04	; 4
     e80:	bf 2e       	mov	r11, r31
     e82:	09 c0       	rjmp	.+18     	; 0xe96 <vfprintf+0x272>
     e84:	34 fe       	sbrs	r3, 4
     e86:	0a c0       	rjmp	.+20     	; 0xe9c <vfprintf+0x278>
     e88:	29 2f       	mov	r18, r25
     e8a:	26 60       	ori	r18, 0x06	; 6
     e8c:	b2 2e       	mov	r11, r18
     e8e:	06 c0       	rjmp	.+12     	; 0xe9c <vfprintf+0x278>
     e90:	28 e0       	ldi	r18, 0x08	; 8
     e92:	30 e0       	ldi	r19, 0x00	; 0
     e94:	05 c0       	rjmp	.+10     	; 0xea0 <vfprintf+0x27c>
     e96:	20 e1       	ldi	r18, 0x10	; 16
     e98:	30 e0       	ldi	r19, 0x00	; 0
     e9a:	02 c0       	rjmp	.+4      	; 0xea0 <vfprintf+0x27c>
     e9c:	20 e1       	ldi	r18, 0x10	; 16
     e9e:	32 e0       	ldi	r19, 0x02	; 2
     ea0:	f8 01       	movw	r30, r16
     ea2:	b7 fe       	sbrs	r11, 7
     ea4:	07 c0       	rjmp	.+14     	; 0xeb4 <vfprintf+0x290>
     ea6:	60 81       	ld	r22, Z
     ea8:	71 81       	ldd	r23, Z+1	; 0x01
     eaa:	82 81       	ldd	r24, Z+2	; 0x02
     eac:	93 81       	ldd	r25, Z+3	; 0x03
     eae:	0c 5f       	subi	r16, 0xFC	; 252
     eb0:	1f 4f       	sbci	r17, 0xFF	; 255
     eb2:	06 c0       	rjmp	.+12     	; 0xec0 <vfprintf+0x29c>
     eb4:	60 81       	ld	r22, Z
     eb6:	71 81       	ldd	r23, Z+1	; 0x01
     eb8:	80 e0       	ldi	r24, 0x00	; 0
     eba:	90 e0       	ldi	r25, 0x00	; 0
     ebc:	0e 5f       	subi	r16, 0xFE	; 254
     ebe:	1f 4f       	sbci	r17, 0xFF	; 255
     ec0:	a3 01       	movw	r20, r6
     ec2:	0e 94 45 08 	call	0x108a	; 0x108a <__ultoa_invert>
     ec6:	88 2e       	mov	r8, r24
     ec8:	86 18       	sub	r8, r6
     eca:	fb 2d       	mov	r31, r11
     ecc:	ff 77       	andi	r31, 0x7F	; 127
     ece:	3f 2e       	mov	r3, r31
     ed0:	36 fe       	sbrs	r3, 6
     ed2:	0d c0       	rjmp	.+26     	; 0xeee <vfprintf+0x2ca>
     ed4:	23 2d       	mov	r18, r3
     ed6:	2e 7f       	andi	r18, 0xFE	; 254
     ed8:	a2 2e       	mov	r10, r18
     eda:	89 14       	cp	r8, r9
     edc:	58 f4       	brcc	.+22     	; 0xef4 <vfprintf+0x2d0>
     ede:	34 fe       	sbrs	r3, 4
     ee0:	0b c0       	rjmp	.+22     	; 0xef8 <vfprintf+0x2d4>
     ee2:	32 fc       	sbrc	r3, 2
     ee4:	09 c0       	rjmp	.+18     	; 0xef8 <vfprintf+0x2d4>
     ee6:	83 2d       	mov	r24, r3
     ee8:	8e 7e       	andi	r24, 0xEE	; 238
     eea:	a8 2e       	mov	r10, r24
     eec:	05 c0       	rjmp	.+10     	; 0xef8 <vfprintf+0x2d4>
     eee:	b8 2c       	mov	r11, r8
     ef0:	a3 2c       	mov	r10, r3
     ef2:	03 c0       	rjmp	.+6      	; 0xefa <vfprintf+0x2d6>
     ef4:	b8 2c       	mov	r11, r8
     ef6:	01 c0       	rjmp	.+2      	; 0xefa <vfprintf+0x2d6>
     ef8:	b9 2c       	mov	r11, r9
     efa:	a4 fe       	sbrs	r10, 4
     efc:	0f c0       	rjmp	.+30     	; 0xf1c <vfprintf+0x2f8>
     efe:	fe 01       	movw	r30, r28
     f00:	e8 0d       	add	r30, r8
     f02:	f1 1d       	adc	r31, r1
     f04:	80 81       	ld	r24, Z
     f06:	80 33       	cpi	r24, 0x30	; 48
     f08:	21 f4       	brne	.+8      	; 0xf12 <vfprintf+0x2ee>
     f0a:	9a 2d       	mov	r25, r10
     f0c:	99 7e       	andi	r25, 0xE9	; 233
     f0e:	a9 2e       	mov	r10, r25
     f10:	09 c0       	rjmp	.+18     	; 0xf24 <vfprintf+0x300>
     f12:	a2 fe       	sbrs	r10, 2
     f14:	06 c0       	rjmp	.+12     	; 0xf22 <vfprintf+0x2fe>
     f16:	b3 94       	inc	r11
     f18:	b3 94       	inc	r11
     f1a:	04 c0       	rjmp	.+8      	; 0xf24 <vfprintf+0x300>
     f1c:	8a 2d       	mov	r24, r10
     f1e:	86 78       	andi	r24, 0x86	; 134
     f20:	09 f0       	breq	.+2      	; 0xf24 <vfprintf+0x300>
     f22:	b3 94       	inc	r11
     f24:	a3 fc       	sbrc	r10, 3
     f26:	11 c0       	rjmp	.+34     	; 0xf4a <vfprintf+0x326>
     f28:	a0 fe       	sbrs	r10, 0
     f2a:	06 c0       	rjmp	.+12     	; 0xf38 <vfprintf+0x314>
     f2c:	b2 14       	cp	r11, r2
     f2e:	88 f4       	brcc	.+34     	; 0xf52 <vfprintf+0x32e>
     f30:	28 0c       	add	r2, r8
     f32:	92 2c       	mov	r9, r2
     f34:	9b 18       	sub	r9, r11
     f36:	0e c0       	rjmp	.+28     	; 0xf54 <vfprintf+0x330>
     f38:	b2 14       	cp	r11, r2
     f3a:	60 f4       	brcc	.+24     	; 0xf54 <vfprintf+0x330>
     f3c:	b6 01       	movw	r22, r12
     f3e:	80 e2       	ldi	r24, 0x20	; 32
     f40:	90 e0       	ldi	r25, 0x00	; 0
     f42:	0e 94 09 08 	call	0x1012	; 0x1012 <fputc>
     f46:	b3 94       	inc	r11
     f48:	f7 cf       	rjmp	.-18     	; 0xf38 <vfprintf+0x314>
     f4a:	b2 14       	cp	r11, r2
     f4c:	18 f4       	brcc	.+6      	; 0xf54 <vfprintf+0x330>
     f4e:	2b 18       	sub	r2, r11
     f50:	02 c0       	rjmp	.+4      	; 0xf56 <vfprintf+0x332>
     f52:	98 2c       	mov	r9, r8
     f54:	21 2c       	mov	r2, r1
     f56:	a4 fe       	sbrs	r10, 4
     f58:	10 c0       	rjmp	.+32     	; 0xf7a <vfprintf+0x356>
     f5a:	b6 01       	movw	r22, r12
     f5c:	80 e3       	ldi	r24, 0x30	; 48
     f5e:	90 e0       	ldi	r25, 0x00	; 0
     f60:	0e 94 09 08 	call	0x1012	; 0x1012 <fputc>
     f64:	a2 fe       	sbrs	r10, 2
     f66:	17 c0       	rjmp	.+46     	; 0xf96 <vfprintf+0x372>
     f68:	a1 fc       	sbrc	r10, 1
     f6a:	03 c0       	rjmp	.+6      	; 0xf72 <vfprintf+0x34e>
     f6c:	88 e7       	ldi	r24, 0x78	; 120
     f6e:	90 e0       	ldi	r25, 0x00	; 0
     f70:	02 c0       	rjmp	.+4      	; 0xf76 <vfprintf+0x352>
     f72:	88 e5       	ldi	r24, 0x58	; 88
     f74:	90 e0       	ldi	r25, 0x00	; 0
     f76:	b6 01       	movw	r22, r12
     f78:	0c c0       	rjmp	.+24     	; 0xf92 <vfprintf+0x36e>
     f7a:	8a 2d       	mov	r24, r10
     f7c:	86 78       	andi	r24, 0x86	; 134
     f7e:	59 f0       	breq	.+22     	; 0xf96 <vfprintf+0x372>
     f80:	a1 fe       	sbrs	r10, 1
     f82:	02 c0       	rjmp	.+4      	; 0xf88 <vfprintf+0x364>
     f84:	8b e2       	ldi	r24, 0x2B	; 43
     f86:	01 c0       	rjmp	.+2      	; 0xf8a <vfprintf+0x366>
     f88:	80 e2       	ldi	r24, 0x20	; 32
     f8a:	a7 fc       	sbrc	r10, 7
     f8c:	8d e2       	ldi	r24, 0x2D	; 45
     f8e:	b6 01       	movw	r22, r12
     f90:	90 e0       	ldi	r25, 0x00	; 0
     f92:	0e 94 09 08 	call	0x1012	; 0x1012 <fputc>
     f96:	89 14       	cp	r8, r9
     f98:	38 f4       	brcc	.+14     	; 0xfa8 <vfprintf+0x384>
     f9a:	b6 01       	movw	r22, r12
     f9c:	80 e3       	ldi	r24, 0x30	; 48
     f9e:	90 e0       	ldi	r25, 0x00	; 0
     fa0:	0e 94 09 08 	call	0x1012	; 0x1012 <fputc>
     fa4:	9a 94       	dec	r9
     fa6:	f7 cf       	rjmp	.-18     	; 0xf96 <vfprintf+0x372>
     fa8:	8a 94       	dec	r8
     faa:	f3 01       	movw	r30, r6
     fac:	e8 0d       	add	r30, r8
     fae:	f1 1d       	adc	r31, r1
     fb0:	80 81       	ld	r24, Z
     fb2:	b6 01       	movw	r22, r12
     fb4:	90 e0       	ldi	r25, 0x00	; 0
     fb6:	0e 94 09 08 	call	0x1012	; 0x1012 <fputc>
     fba:	81 10       	cpse	r8, r1
     fbc:	f5 cf       	rjmp	.-22     	; 0xfa8 <vfprintf+0x384>
     fbe:	22 20       	and	r2, r2
     fc0:	09 f4       	brne	.+2      	; 0xfc4 <vfprintf+0x3a0>
     fc2:	42 ce       	rjmp	.-892    	; 0xc48 <vfprintf+0x24>
     fc4:	b6 01       	movw	r22, r12
     fc6:	80 e2       	ldi	r24, 0x20	; 32
     fc8:	90 e0       	ldi	r25, 0x00	; 0
     fca:	0e 94 09 08 	call	0x1012	; 0x1012 <fputc>
     fce:	2a 94       	dec	r2
     fd0:	f6 cf       	rjmp	.-20     	; 0xfbe <vfprintf+0x39a>
     fd2:	f6 01       	movw	r30, r12
     fd4:	86 81       	ldd	r24, Z+6	; 0x06
     fd6:	97 81       	ldd	r25, Z+7	; 0x07
     fd8:	02 c0       	rjmp	.+4      	; 0xfde <vfprintf+0x3ba>
     fda:	8f ef       	ldi	r24, 0xFF	; 255
     fdc:	9f ef       	ldi	r25, 0xFF	; 255
     fde:	2b 96       	adiw	r28, 0x0b	; 11
     fe0:	e2 e1       	ldi	r30, 0x12	; 18
     fe2:	0c 94 bf 08 	jmp	0x117e	; 0x117e <__epilogue_restores__>

00000fe6 <strnlen_P>:
     fe6:	fc 01       	movw	r30, r24
     fe8:	05 90       	lpm	r0, Z+
     fea:	61 50       	subi	r22, 0x01	; 1
     fec:	70 40       	sbci	r23, 0x00	; 0
     fee:	01 10       	cpse	r0, r1
     ff0:	d8 f7       	brcc	.-10     	; 0xfe8 <strnlen_P+0x2>
     ff2:	80 95       	com	r24
     ff4:	90 95       	com	r25
     ff6:	8e 0f       	add	r24, r30
     ff8:	9f 1f       	adc	r25, r31
     ffa:	08 95       	ret

00000ffc <strnlen>:
     ffc:	fc 01       	movw	r30, r24
     ffe:	61 50       	subi	r22, 0x01	; 1
    1000:	70 40       	sbci	r23, 0x00	; 0
    1002:	01 90       	ld	r0, Z+
    1004:	01 10       	cpse	r0, r1
    1006:	d8 f7       	brcc	.-10     	; 0xffe <strnlen+0x2>
    1008:	80 95       	com	r24
    100a:	90 95       	com	r25
    100c:	8e 0f       	add	r24, r30
    100e:	9f 1f       	adc	r25, r31
    1010:	08 95       	ret

00001012 <fputc>:
    1012:	0f 93       	push	r16
    1014:	1f 93       	push	r17
    1016:	cf 93       	push	r28
    1018:	df 93       	push	r29
    101a:	fb 01       	movw	r30, r22
    101c:	23 81       	ldd	r18, Z+3	; 0x03
    101e:	21 fd       	sbrc	r18, 1
    1020:	03 c0       	rjmp	.+6      	; 0x1028 <fputc+0x16>
    1022:	8f ef       	ldi	r24, 0xFF	; 255
    1024:	9f ef       	ldi	r25, 0xFF	; 255
    1026:	2c c0       	rjmp	.+88     	; 0x1080 <fputc+0x6e>
    1028:	22 ff       	sbrs	r18, 2
    102a:	16 c0       	rjmp	.+44     	; 0x1058 <fputc+0x46>
    102c:	46 81       	ldd	r20, Z+6	; 0x06
    102e:	57 81       	ldd	r21, Z+7	; 0x07
    1030:	24 81       	ldd	r18, Z+4	; 0x04
    1032:	35 81       	ldd	r19, Z+5	; 0x05
    1034:	42 17       	cp	r20, r18
    1036:	53 07       	cpc	r21, r19
    1038:	44 f4       	brge	.+16     	; 0x104a <fputc+0x38>
    103a:	a0 81       	ld	r26, Z
    103c:	b1 81       	ldd	r27, Z+1	; 0x01
    103e:	9d 01       	movw	r18, r26
    1040:	2f 5f       	subi	r18, 0xFF	; 255
    1042:	3f 4f       	sbci	r19, 0xFF	; 255
    1044:	31 83       	std	Z+1, r19	; 0x01
    1046:	20 83       	st	Z, r18
    1048:	8c 93       	st	X, r24
    104a:	26 81       	ldd	r18, Z+6	; 0x06
    104c:	37 81       	ldd	r19, Z+7	; 0x07
    104e:	2f 5f       	subi	r18, 0xFF	; 255
    1050:	3f 4f       	sbci	r19, 0xFF	; 255
    1052:	37 83       	std	Z+7, r19	; 0x07
    1054:	26 83       	std	Z+6, r18	; 0x06
    1056:	14 c0       	rjmp	.+40     	; 0x1080 <fputc+0x6e>
    1058:	8b 01       	movw	r16, r22
    105a:	ec 01       	movw	r28, r24
    105c:	fb 01       	movw	r30, r22
    105e:	00 84       	ldd	r0, Z+8	; 0x08
    1060:	f1 85       	ldd	r31, Z+9	; 0x09
    1062:	e0 2d       	mov	r30, r0
    1064:	09 95       	icall
    1066:	89 2b       	or	r24, r25
    1068:	e1 f6       	brne	.-72     	; 0x1022 <fputc+0x10>
    106a:	d8 01       	movw	r26, r16
    106c:	16 96       	adiw	r26, 0x06	; 6
    106e:	8d 91       	ld	r24, X+
    1070:	9c 91       	ld	r25, X
    1072:	17 97       	sbiw	r26, 0x07	; 7
    1074:	01 96       	adiw	r24, 0x01	; 1
    1076:	17 96       	adiw	r26, 0x07	; 7
    1078:	9c 93       	st	X, r25
    107a:	8e 93       	st	-X, r24
    107c:	16 97       	sbiw	r26, 0x06	; 6
    107e:	ce 01       	movw	r24, r28
    1080:	df 91       	pop	r29
    1082:	cf 91       	pop	r28
    1084:	1f 91       	pop	r17
    1086:	0f 91       	pop	r16
    1088:	08 95       	ret

0000108a <__ultoa_invert>:
    108a:	fa 01       	movw	r30, r20
    108c:	aa 27       	eor	r26, r26
    108e:	28 30       	cpi	r18, 0x08	; 8
    1090:	51 f1       	breq	.+84     	; 0x10e6 <__ultoa_invert+0x5c>
    1092:	20 31       	cpi	r18, 0x10	; 16
    1094:	81 f1       	breq	.+96     	; 0x10f6 <__ultoa_invert+0x6c>
    1096:	e8 94       	clt
    1098:	6f 93       	push	r22
    109a:	6e 7f       	andi	r22, 0xFE	; 254
    109c:	6e 5f       	subi	r22, 0xFE	; 254
    109e:	7f 4f       	sbci	r23, 0xFF	; 255
    10a0:	8f 4f       	sbci	r24, 0xFF	; 255
    10a2:	9f 4f       	sbci	r25, 0xFF	; 255
    10a4:	af 4f       	sbci	r26, 0xFF	; 255
    10a6:	b1 e0       	ldi	r27, 0x01	; 1
    10a8:	3e d0       	rcall	.+124    	; 0x1126 <__ultoa_invert+0x9c>
    10aa:	b4 e0       	ldi	r27, 0x04	; 4
    10ac:	3c d0       	rcall	.+120    	; 0x1126 <__ultoa_invert+0x9c>
    10ae:	67 0f       	add	r22, r23
    10b0:	78 1f       	adc	r23, r24
    10b2:	89 1f       	adc	r24, r25
    10b4:	9a 1f       	adc	r25, r26
    10b6:	a1 1d       	adc	r26, r1
    10b8:	68 0f       	add	r22, r24
    10ba:	79 1f       	adc	r23, r25
    10bc:	8a 1f       	adc	r24, r26
    10be:	91 1d       	adc	r25, r1
    10c0:	a1 1d       	adc	r26, r1
    10c2:	6a 0f       	add	r22, r26
    10c4:	71 1d       	adc	r23, r1
    10c6:	81 1d       	adc	r24, r1
    10c8:	91 1d       	adc	r25, r1
    10ca:	a1 1d       	adc	r26, r1
    10cc:	20 d0       	rcall	.+64     	; 0x110e <__ultoa_invert+0x84>
    10ce:	09 f4       	brne	.+2      	; 0x10d2 <__ultoa_invert+0x48>
    10d0:	68 94       	set
    10d2:	3f 91       	pop	r19
    10d4:	2a e0       	ldi	r18, 0x0A	; 10
    10d6:	26 9f       	mul	r18, r22
    10d8:	11 24       	eor	r1, r1
    10da:	30 19       	sub	r19, r0
    10dc:	30 5d       	subi	r19, 0xD0	; 208
    10de:	31 93       	st	Z+, r19
    10e0:	de f6       	brtc	.-74     	; 0x1098 <__ultoa_invert+0xe>
    10e2:	cf 01       	movw	r24, r30
    10e4:	08 95       	ret
    10e6:	46 2f       	mov	r20, r22
    10e8:	47 70       	andi	r20, 0x07	; 7
    10ea:	40 5d       	subi	r20, 0xD0	; 208
    10ec:	41 93       	st	Z+, r20
    10ee:	b3 e0       	ldi	r27, 0x03	; 3
    10f0:	0f d0       	rcall	.+30     	; 0x1110 <__ultoa_invert+0x86>
    10f2:	c9 f7       	brne	.-14     	; 0x10e6 <__ultoa_invert+0x5c>
    10f4:	f6 cf       	rjmp	.-20     	; 0x10e2 <__ultoa_invert+0x58>
    10f6:	46 2f       	mov	r20, r22
    10f8:	4f 70       	andi	r20, 0x0F	; 15
    10fa:	40 5d       	subi	r20, 0xD0	; 208
    10fc:	4a 33       	cpi	r20, 0x3A	; 58
    10fe:	18 f0       	brcs	.+6      	; 0x1106 <__ultoa_invert+0x7c>
    1100:	49 5d       	subi	r20, 0xD9	; 217
    1102:	31 fd       	sbrc	r19, 1
    1104:	40 52       	subi	r20, 0x20	; 32
    1106:	41 93       	st	Z+, r20
    1108:	02 d0       	rcall	.+4      	; 0x110e <__ultoa_invert+0x84>
    110a:	a9 f7       	brne	.-22     	; 0x10f6 <__ultoa_invert+0x6c>
    110c:	ea cf       	rjmp	.-44     	; 0x10e2 <__ultoa_invert+0x58>
    110e:	b4 e0       	ldi	r27, 0x04	; 4
    1110:	a6 95       	lsr	r26
    1112:	97 95       	ror	r25
    1114:	87 95       	ror	r24
    1116:	77 95       	ror	r23
    1118:	67 95       	ror	r22
    111a:	ba 95       	dec	r27
    111c:	c9 f7       	brne	.-14     	; 0x1110 <__ultoa_invert+0x86>
    111e:	00 97       	sbiw	r24, 0x00	; 0
    1120:	61 05       	cpc	r22, r1
    1122:	71 05       	cpc	r23, r1
    1124:	08 95       	ret
    1126:	9b 01       	movw	r18, r22
    1128:	ac 01       	movw	r20, r24
    112a:	0a 2e       	mov	r0, r26
    112c:	06 94       	lsr	r0
    112e:	57 95       	ror	r21
    1130:	47 95       	ror	r20
    1132:	37 95       	ror	r19
    1134:	27 95       	ror	r18
    1136:	ba 95       	dec	r27
    1138:	c9 f7       	brne	.-14     	; 0x112c <__ultoa_invert+0xa2>
    113a:	62 0f       	add	r22, r18
    113c:	73 1f       	adc	r23, r19
    113e:	84 1f       	adc	r24, r20
    1140:	95 1f       	adc	r25, r21
    1142:	a0 1d       	adc	r26, r0
    1144:	08 95       	ret

00001146 <__prologue_saves__>:
    1146:	2f 92       	push	r2
    1148:	3f 92       	push	r3
    114a:	4f 92       	push	r4
    114c:	5f 92       	push	r5
    114e:	6f 92       	push	r6
    1150:	7f 92       	push	r7
    1152:	8f 92       	push	r8
    1154:	9f 92       	push	r9
    1156:	af 92       	push	r10
    1158:	bf 92       	push	r11
    115a:	cf 92       	push	r12
    115c:	df 92       	push	r13
    115e:	ef 92       	push	r14
    1160:	ff 92       	push	r15
    1162:	0f 93       	push	r16
    1164:	1f 93       	push	r17
    1166:	cf 93       	push	r28
    1168:	df 93       	push	r29
    116a:	cd b7       	in	r28, 0x3d	; 61
    116c:	de b7       	in	r29, 0x3e	; 62
    116e:	ca 1b       	sub	r28, r26
    1170:	db 0b       	sbc	r29, r27
    1172:	0f b6       	in	r0, 0x3f	; 63
    1174:	f8 94       	cli
    1176:	de bf       	out	0x3e, r29	; 62
    1178:	0f be       	out	0x3f, r0	; 63
    117a:	cd bf       	out	0x3d, r28	; 61
    117c:	09 94       	ijmp

0000117e <__epilogue_restores__>:
    117e:	2a 88       	ldd	r2, Y+18	; 0x12
    1180:	39 88       	ldd	r3, Y+17	; 0x11
    1182:	48 88       	ldd	r4, Y+16	; 0x10
    1184:	5f 84       	ldd	r5, Y+15	; 0x0f
    1186:	6e 84       	ldd	r6, Y+14	; 0x0e
    1188:	7d 84       	ldd	r7, Y+13	; 0x0d
    118a:	8c 84       	ldd	r8, Y+12	; 0x0c
    118c:	9b 84       	ldd	r9, Y+11	; 0x0b
    118e:	aa 84       	ldd	r10, Y+10	; 0x0a
    1190:	b9 84       	ldd	r11, Y+9	; 0x09
    1192:	c8 84       	ldd	r12, Y+8	; 0x08
    1194:	df 80       	ldd	r13, Y+7	; 0x07
    1196:	ee 80       	ldd	r14, Y+6	; 0x06
    1198:	fd 80       	ldd	r15, Y+5	; 0x05
    119a:	0c 81       	ldd	r16, Y+4	; 0x04
    119c:	1b 81       	ldd	r17, Y+3	; 0x03
    119e:	aa 81       	ldd	r26, Y+2	; 0x02
    11a0:	b9 81       	ldd	r27, Y+1	; 0x01
    11a2:	ce 0f       	add	r28, r30
    11a4:	d1 1d       	adc	r29, r1
    11a6:	0f b6       	in	r0, 0x3f	; 63
    11a8:	f8 94       	cli
    11aa:	de bf       	out	0x3e, r29	; 62
    11ac:	0f be       	out	0x3f, r0	; 63
    11ae:	cd bf       	out	0x3d, r28	; 61
    11b0:	ed 01       	movw	r28, r26
    11b2:	08 95       	ret

000011b4 <_exit>:
    11b4:	f8 94       	cli

000011b6 <__stop_program>:
    11b6:	ff cf       	rjmp	.-2      	; 0x11b6 <__stop_program>
